---
triple:          'arm64-apple-darwin'
binary-path:     test
relocations:
  - { offsetInCU: 0xB57E, offset: 0xB57E, size: 0x8, addend: 0x0, symName: __ZNSt3__124__put_character_sequenceB7v160006IcNS_11char_traitsIcEEEERNS_13basic_ostreamIT_T0_EES7_PKS4_m, symObjAddr: 0x5504, symBinAddr: 0x100008E4C, symSize: 0x1F4 }
  - { offsetInCU: 0xE030, offset: 0xE030, size: 0x8, addend: 0x0, symName: __ZNSt3__1lsB7v160006INS_11char_traitsIcEEEERNS_13basic_ostreamIcT_EES6_PKc, symObjAddr: 0x1158, symBinAddr: 0x100004AA0, symSize: 0x48 }
  - { offsetInCU: 0xE076, offset: 0xE076, size: 0x8, addend: 0x0, symName: __ZNSt3__14endlB7v160006IcNS_11char_traitsIcEEEERNS_13basic_ostreamIT_T0_EES7_, symObjAddr: 0x11CC, symBinAddr: 0x100004B14, symSize: 0x58 }
  - { offsetInCU: 0xE0C1, offset: 0xE0C1, size: 0x8, addend: 0x0, symName: __ZNSt3__1eqB7v160006IcNS_11char_traitsIcEENS_9allocatorIcEEEEbRKNS_12basic_stringIT_T0_T1_EEPKS6_, symObjAddr: 0x2314, symBinAddr: 0x100005C5C, symSize: 0xC0 }
  - { offsetInCU: 0xE128, offset: 0xE128, size: 0x8, addend: 0x0, symName: __ZNSt3__119__debug_db_insert_cB7v160006INS_6vectorIP15ServerStatementNS_9allocatorIS3_EEEEEEvPT_, symObjAddr: 0x2A5C, symBinAddr: 0x1000063A4, symSize: 0x10 }
  - { offsetInCU: 0xE159, offset: 0xE159, size: 0x8, addend: 0x0, symName: __ZNSt3__119__debug_db_insert_cB7v160006INS_6vectorINS_12basic_stringIcNS_11char_traitsIcEENS_9allocatorIcEEEENS5_IS7_EEEEEEvPT_, symObjAddr: 0x2CA4, symBinAddr: 0x1000065EC, symSize: 0x10 }
  - { offsetInCU: 0xE18A, offset: 0xE18A, size: 0x8, addend: 0x0, symName: __ZNSt3__118__debug_db_erase_cB7v160006INS_6vectorINS_12basic_stringIcNS_11char_traitsIcEENS_9allocatorIcEEEENS5_IS7_EEEEEEvPT_, symObjAddr: 0x2F7C, symBinAddr: 0x1000068C4, symSize: 0x10 }
  - { offsetInCU: 0xE1BB, offset: 0xE1BB, size: 0x8, addend: 0x0, symName: __ZNSt3__112__to_addressB7v160006INS_12basic_stringIcNS_11char_traitsIcEENS_9allocatorIcEEEEEEPT_S8_, symObjAddr: 0x3098, symBinAddr: 0x1000069E0, symSize: 0x14 }
  - { offsetInCU: 0xE1F0, offset: 0xE1F0, size: 0x8, addend: 0x0, symName: __ZNSt3__130__libcpp_is_constant_evaluatedB7v160006Ev, symObjAddr: 0x3214, symBinAddr: 0x100006B5C, symSize: 0xC }
  - { offsetInCU: 0xE20D, offset: 0xE20D, size: 0x8, addend: 0x0, symName: __ZNSt3__119__libcpp_deallocateB7v160006EPvmm, symObjAddr: 0x3220, symBinAddr: 0x100006B68, symSize: 0x30 }
  - { offsetInCU: 0xE255, offset: 0xE255, size: 0x8, addend: 0x0, symName: __ZNSt3__127__do_deallocate_handle_sizeB7v160006IJEEEvPvmDpT_, symObjAddr: 0x3250, symBinAddr: 0x100006B98, symSize: 0x28 }
  - { offsetInCU: 0xE293, offset: 0xE293, size: 0x8, addend: 0x0, symName: __ZNSt3__124__libcpp_operator_deleteB7v160006IJPvEEEvDpT_, symObjAddr: 0x3278, symBinAddr: 0x100006BC0, symSize: 0x24 }
  - { offsetInCU: 0xE2C8, offset: 0xE2C8, size: 0x8, addend: 0x0, symName: __ZNSt3__112__to_addressB7v160006IKcEEPT_S3_, symObjAddr: 0x335C, symBinAddr: 0x100006CA4, symSize: 0x14 }
  - { offsetInCU: 0xE330, offset: 0xE330, size: 0x8, addend: 0x0, symName: __ZNSt3__119__debug_db_insert_cB7v160006INS_12basic_stringIcNS_11char_traitsIcEENS_9allocatorIcEEEEEEvPT_, symObjAddr: 0x3754, symBinAddr: 0x10000709C, symSize: 0x10 }
  - { offsetInCU: 0xE361, offset: 0xE361, size: 0x8, addend: 0x0, symName: __ZNSt3__118__constexpr_strlenB7v160006EPKc, symObjAddr: 0x3820, symBinAddr: 0x100007168, symSize: 0x24 }
  - { offsetInCU: 0xE38D, offset: 0xE38D, size: 0x8, addend: 0x0, symName: __ZNSt3__112__to_addressB7v160006IP15ServerStatementEEPT_S4_, symObjAddr: 0x3BD8, symBinAddr: 0x100007520, symSize: 0x14 }
  - { offsetInCU: 0xE3C2, offset: 0xE3C2, size: 0x8, addend: 0x0, symName: __ZNSt3__13maxB7v160006ImEERKT_S3_S3_, symObjAddr: 0x4010, symBinAddr: 0x100007958, symSize: 0x2C }
  - { offsetInCU: 0xE405, offset: 0xE405, size: 0x8, addend: 0x0, symName: __ZNSt3__13minB7v160006ImEERKT_S3_S3_, symObjAddr: 0x403C, symBinAddr: 0x100007984, symSize: 0x2C }
  - { offsetInCU: 0xE649, offset: 0xE649, size: 0x8, addend: 0x0, symName: __ZNSt3__13minB7v160006ImNS_6__lessImmEEEERKT_S5_S5_T0_, symObjAddr: 0x40C8, symBinAddr: 0x100007A10, symSize: 0x54 }
  - { offsetInCU: 0xE6DE, offset: 0xE6DE, size: 0x8, addend: 0x0, symName: __ZNSt3__120__throw_length_errorB7v160006EPKc, symObjAddr: 0x41A4, symBinAddr: 0x100007AEC, symSize: 0x64 }
  - { offsetInCU: 0xE706, offset: 0xE706, size: 0x8, addend: 0x0, symName: __ZNSt3__13maxB7v160006ImNS_6__lessImmEEEERKT_S5_S5_T0_, symObjAddr: 0x42E8, symBinAddr: 0x100007C30, symSize: 0x54 }
  - { offsetInCU: 0xE760, offset: 0xE760, size: 0x8, addend: 0x0, symName: __ZNSt3__119__allocate_at_leastB7v160006INS_9allocatorIP15ServerStatementEEEENS_19__allocation_resultINS_16allocator_traitsIT_E7pointerEEERS7_m, symObjAddr: 0x444C, symBinAddr: 0x100007D94, symSize: 0x40 }
  - { offsetInCU: 0xE7A3, offset: 0xE7A3, size: 0x8, addend: 0x0, symName: __ZNSt3__117__libcpp_allocateB7v160006Emm, symObjAddr: 0x45FC, symBinAddr: 0x100007F44, symSize: 0x28 }
  - { offsetInCU: 0xE7E0, offset: 0xE7E0, size: 0x8, addend: 0x0, symName: __ZNSt3__121__libcpp_operator_newB7v160006IJmEEEPvDpT_, symObjAddr: 0x4624, symBinAddr: 0x100007F6C, symSize: 0x24 }
  - { offsetInCU: 0xE819, offset: 0xE819, size: 0x8, addend: 0x0, symName: __ZNSt3__142__uninitialized_allocator_move_if_noexceptB7v160006INS_9allocatorIP15ServerStatementEENS_16reverse_iteratorIPS3_EES7_S3_vEET1_RT_T0_SB_S8_, symObjAddr: 0x4764, symBinAddr: 0x1000080AC, symSize: 0xE8 }
  - { offsetInCU: 0xE896, offset: 0xE896, size: 0x8, addend: 0x0, symName: __ZNSt3__14swapB7v160006IPP15ServerStatementEEvRT_S5_, symObjAddr: 0x4898, symBinAddr: 0x1000081E0, symSize: 0x3C }
  - { offsetInCU: 0xE8E7, offset: 0xE8E7, size: 0x8, addend: 0x0, symName: __ZNSt3__125__debug_db_invalidate_allB7v160006INS_6vectorIP15ServerStatementNS_9allocatorIS3_EEEEEEvPT_, symObjAddr: 0x4980, symBinAddr: 0x1000082C8, symSize: 0x10 }
  - { offsetInCU: 0xE918, offset: 0xE918, size: 0x8, addend: 0x0, symName: __ZNSt3__1neB7v160006IPP15ServerStatementS3_EEbRKNS_16reverse_iteratorIT_EERKNS4_IT0_EE, symObjAddr: 0x49D8, symBinAddr: 0x100008320, symSize: 0x48 }
  - { offsetInCU: 0xE989, offset: 0xE989, size: 0x8, addend: 0x0, symName: __ZNSt3__114__construct_atB7v160006IP15ServerStatementJS2_EPS2_EEPT_S5_DpOT0_, symObjAddr: 0x4A20, symBinAddr: 0x100008368, symSize: 0x2C }
  - { offsetInCU: 0xE9F9, offset: 0xE9F9, size: 0x8, addend: 0x0, symName: __ZNSt3__112__to_addressB7v160006INS_16reverse_iteratorIPP15ServerStatementEEvEENS_5decayIDTclsr19__to_address_helperIT_EE6__callclsr3stdE7declvalIRKS7_EEEEE4typeES9_, symObjAddr: 0x4A4C, symBinAddr: 0x100008394, symSize: 0x24 }
  - { offsetInCU: 0xEA2F, offset: 0xEA2F, size: 0x8, addend: 0x0, symName: __ZNSt3__14moveB7v160006INS_16reverse_iteratorIPP15ServerStatementEES5_EET0_T_S7_S6_, symObjAddr: 0x4AB8, symBinAddr: 0x100008400, symSize: 0x78 }
  - { offsetInCU: 0xEAB2, offset: 0xEAB2, size: 0x8, addend: 0x0, symName: __ZNSt3__16__moveB7v160006INS_17_ClassicAlgPolicyENS_16reverse_iteratorIPP15ServerStatementEES6_S6_EENS_4pairIT0_T2_EES8_T1_S9_, symObjAddr: 0x4BA0, symBinAddr: 0x1000084E8, symSize: 0x64 }
  - { offsetInCU: 0xEB1E, offset: 0xEB1E, size: 0x8, addend: 0x0, symName: __ZNSt3__123__dispatch_copy_or_moveB7v160006INS_17_ClassicAlgPolicyENS_11__move_loopIS1_EENS_14__move_trivialENS_16reverse_iteratorIPP15ServerStatementEES9_S9_EENS_4pairIT2_T4_EESB_T3_SC_, symObjAddr: 0x4C04, symBinAddr: 0x10000854C, symSize: 0x7C }
  - { offsetInCU: 0xEB9C, offset: 0xEB9C, size: 0x8, addend: 0x0, symName: __ZNSt3__121__unwrap_and_dispatchB7v160006INS_10__overloadINS_11__move_loopINS_17_ClassicAlgPolicyEEENS_14__move_trivialEEENS_16reverse_iteratorIPP15ServerStatementEESB_SB_Li0EEENS_4pairIT0_T2_EESD_T1_SE_, symObjAddr: 0x4C80, symBinAddr: 0x1000085C8, symSize: 0x12C }
  - { offsetInCU: 0xEC2C, offset: 0xEC2C, size: 0x8, addend: 0x0, symName: __ZNSt3__114__unwrap_rangeB7v160006INS_16reverse_iteratorIPP15ServerStatementEES5_EENS_4pairIT0_S7_EET_S9_, symObjAddr: 0x4DAC, symBinAddr: 0x1000086F4, symSize: 0x84 }
  - { offsetInCU: 0xEDFE, offset: 0xEDFE, size: 0x8, addend: 0x0, symName: __ZNSt3__113__unwrap_iterB7v160006INS_16reverse_iteratorIPP15ServerStatementEENS_18__unwrap_iter_implIS5_Lb0EEELi0EEEDTclsrT0_8__unwrapclsr3stdE7declvalIT_EEEES9_, symObjAddr: 0x4ED0, symBinAddr: 0x100008818, symSize: 0x44 }
  - { offsetInCU: 0xEE42, offset: 0xEE42, size: 0x8, addend: 0x0, symName: __ZNSt3__19make_pairB7v160006INS_16reverse_iteratorIPP15ServerStatementEES5_EENS_4pairINS_18__unwrap_ref_decayIT_E4typeENS7_IT0_E4typeEEEOS8_OSB_, symObjAddr: 0x4F14, symBinAddr: 0x10000885C, symSize: 0x38 }
  - { offsetInCU: 0xEE91, offset: 0xEE91, size: 0x8, addend: 0x0, symName: __ZNSt3__114__rewrap_rangeB7v160006INS_16reverse_iteratorIPP15ServerStatementEES5_EET_S6_T0_, symObjAddr: 0x4F4C, symBinAddr: 0x100008894, symSize: 0x5C }
  - { offsetInCU: 0xEEDD, offset: 0xEEDD, size: 0x8, addend: 0x0, symName: __ZNSt3__113__rewrap_iterB7v160006INS_16reverse_iteratorIPP15ServerStatementEES5_NS_18__unwrap_iter_implIS5_Lb0EEEEET_S8_T0_, symObjAddr: 0x4FA8, symBinAddr: 0x1000088F0, symSize: 0x88 }
  - { offsetInCU: 0xF04A, offset: 0xF04A, size: 0x8, addend: 0x0, symName: __ZNSt3__116__pad_and_outputB7v160006IcNS_11char_traitsIcEEEENS_19ostreambuf_iteratorIT_T0_EES6_PKS4_S8_S8_RNS_8ios_baseES4_, symObjAddr: 0x5714, symBinAddr: 0x10000905C, symSize: 0x248 }
  - { offsetInCU: 0xF119, offset: 0xF119, size: 0x8, addend: 0x0, symName: __ZNSt3__19use_facetB7v160006INS_5ctypeIcEEEERKT_RKNS_6localeE, symObjAddr: 0x5C98, symBinAddr: 0x1000095E0, symSize: 0x2C }
  - { offsetInCU: 0xF5E8, offset: 0xF5E8, size: 0x8, addend: 0x0, symName: __ZNSt3__119__allocate_at_leastB7v160006INS_9allocatorINS_12basic_stringIcNS_11char_traitsIcEENS1_IcEEEEEEEENS_19__allocation_resultINS_16allocator_traitsIT_E7pointerEEERSA_m, symObjAddr: 0x6490, symBinAddr: 0x100009DD8, symSize: 0x40 }
  - { offsetInCU: 0xF62B, offset: 0xF62B, size: 0x8, addend: 0x0, symName: __ZNSt3__142__uninitialized_allocator_move_if_noexceptB7v160006INS_9allocatorINS_12basic_stringIcNS_11char_traitsIcEENS1_IcEEEEEENS_16reverse_iteratorIPS6_EESA_SA_EET2_RT_T0_T1_SB_, symObjAddr: 0x6678, symBinAddr: 0x100009FC0, symSize: 0x134 }
  - { offsetInCU: 0xF6CB, offset: 0xF6CB, size: 0x8, addend: 0x0, symName: __ZNSt3__14swapB7v160006IPNS_12basic_stringIcNS_11char_traitsIcEENS_9allocatorIcEEEEEEvRT_S9_, symObjAddr: 0x67F8, symBinAddr: 0x10000A140, symSize: 0x3C }
  - { offsetInCU: 0xF71C, offset: 0xF71C, size: 0x8, addend: 0x0, symName: __ZNSt3__125__debug_db_invalidate_allB7v160006INS_6vectorINS_12basic_stringIcNS_11char_traitsIcEENS_9allocatorIcEEEENS5_IS7_EEEEEEvPT_, symObjAddr: 0x68FC, symBinAddr: 0x10000A244, symSize: 0x10 }
  - { offsetInCU: 0xF74D, offset: 0xF74D, size: 0x8, addend: 0x0, symName: __ZNSt3__122__make_exception_guardB7v160006INS_29_AllocatorDestroyRangeReverseINS_9allocatorINS_12basic_stringIcNS_11char_traitsIcEENS2_IcEEEEEENS_16reverse_iteratorIPS7_EEEEEENS_28__exception_guard_exceptionsIT_EESE_, symObjAddr: 0x690C, symBinAddr: 0x10000A254, symSize: 0x4C }
  - { offsetInCU: 0xF783, offset: 0xF783, size: 0x8, addend: 0x0, symName: __ZNSt3__1neB7v160006IPNS_12basic_stringIcNS_11char_traitsIcEENS_9allocatorIcEEEES7_EEbRKNS_16reverse_iteratorIT_EERKNS8_IT0_EE, symObjAddr: 0x699C, symBinAddr: 0x10000A2E4, symSize: 0x48 }
  - { offsetInCU: 0xF7CF, offset: 0xF7CF, size: 0x8, addend: 0x0, symName: __ZNSt3__112__to_addressB7v160006INS_16reverse_iteratorIPNS_12basic_stringIcNS_11char_traitsIcEENS_9allocatorIcEEEEEEvEENS_5decayIDTclsr19__to_address_helperIT_EE6__callclsr3stdE7declvalIRKSB_EEEEE4typeESD_, symObjAddr: 0x6A18, symBinAddr: 0x10000A360, symSize: 0x24 }
  - { offsetInCU: 0xF82E, offset: 0xF82E, size: 0x8, addend: 0x0, symName: __ZNSt3__119__allocator_destroyB7v160006INS_9allocatorINS_12basic_stringIcNS_11char_traitsIcEENS1_IcEEEEEENS_16reverse_iteratorINS8_IPS6_EEEESB_EEvRT_T0_T1_, symObjAddr: 0x6D04, symBinAddr: 0x10000A64C, symSize: 0x70 }
  - { offsetInCU: 0xF893, offset: 0xF893, size: 0x8, addend: 0x0, symName: __ZNSt3__1neB7v160006INS_16reverse_iteratorIPNS_12basic_stringIcNS_11char_traitsIcEENS_9allocatorIcEEEEEES9_EEbRKNS1_IT_EERKNS1_IT0_EE, symObjAddr: 0x6DB0, symBinAddr: 0x10000A6F8, symSize: 0x60 }
  - { offsetInCU: 0xF8DF, offset: 0xF8DF, size: 0x8, addend: 0x0, symName: __ZNSt3__112__to_addressB7v160006INS_16reverse_iteratorINS1_IPNS_12basic_stringIcNS_11char_traitsIcEENS_9allocatorIcEEEEEEEEvEENS_5decayIDTclsr19__to_address_helperIT_EE6__callclsr3stdE7declvalIRKSC_EEEEE4typeESE_, symObjAddr: 0x6E10, symBinAddr: 0x10000A758, symSize: 0x24 }
  - { offsetInCU: 0xF971, offset: 0xF971, size: 0x8, addend: 0x0, symName: __ZNSt3__1ltB7v160006IcNS_11char_traitsIcEENS_9allocatorIcEEEEbRKNS_12basic_stringIT_T0_T1_EESB_, symObjAddr: 0x7C30, symBinAddr: 0x10000B578, symSize: 0x38 }
  - { offsetInCU: 0xF9ED, offset: 0xF9ED, size: 0x8, addend: 0x0, symName: __ZNSt3__118__constexpr_memcmpB7v160006IcEEiPKT_S3_m, symObjAddr: 0x7FA4, symBinAddr: 0x10000B8EC, symSize: 0x34 }
  - { offsetInCU: 0xFA5C, offset: 0xFA5C, size: 0x8, addend: 0x0, symName: __ZNSt3__127__tree_balance_after_insertB7v160006IPNS_16__tree_node_baseIPvEEEEvT_S5_, symObjAddr: 0x8518, symBinAddr: 0x10000BE60, symSize: 0x340 }
  - { offsetInCU: 0xFAD0, offset: 0xFAD0, size: 0x8, addend: 0x0, symName: __ZNSt3__120__tree_is_left_childB7v160006IPNS_16__tree_node_baseIPvEEEEbT_, symObjAddr: 0x8898, symBinAddr: 0x10000C1E0, symSize: 0x2C }
  - { offsetInCU: 0xFB05, offset: 0xFB05, size: 0x8, addend: 0x0, symName: __ZNSt3__118__tree_left_rotateB7v160006IPNS_16__tree_node_baseIPvEEEEvT_, symObjAddr: 0x88C4, symBinAddr: 0x10000C20C, symSize: 0xEC }
  - { offsetInCU: 0xFB47, offset: 0xFB47, size: 0x8, addend: 0x0, symName: __ZNSt3__119__tree_right_rotateB7v160006IPNS_16__tree_node_baseIPvEEEEvT_, symObjAddr: 0x89B0, symBinAddr: 0x10000C2F8, symSize: 0xCC }
  - { offsetInCU: 0xFB89, offset: 0xFB89, size: 0x8, addend: 0x0, symName: __ZNSt3__112__to_addressB7v160006IPK15ListenStatementEEPT_S5_, symObjAddr: 0x9010, symBinAddr: 0x10000C958, symSize: 0x14 }
  - { offsetInCU: 0xFBBE, offset: 0xFBBE, size: 0x8, addend: 0x0, symName: __ZNSt3__119__allocate_at_leastB7v160006INS_9allocatorIPK15ListenStatementEEEENS_19__allocation_resultINS_16allocator_traitsIT_E7pointerEEERS8_m, symObjAddr: 0x9650, symBinAddr: 0x10000CF98, symSize: 0x40 }
  - { offsetInCU: 0xFC01, offset: 0xFC01, size: 0x8, addend: 0x0, symName: __ZNSt3__142__uninitialized_allocator_move_if_noexceptB7v160006INS_9allocatorIPK15ListenStatementEENS_16reverse_iteratorIPS4_EES8_S4_vEET1_RT_T0_SC_S9_, symObjAddr: 0x9904, symBinAddr: 0x10000D24C, symSize: 0xE8 }
  - { offsetInCU: 0xFC7E, offset: 0xFC7E, size: 0x8, addend: 0x0, symName: __ZNSt3__14swapB7v160006IPPK15ListenStatementEEvRT_S6_, symObjAddr: 0x9A38, symBinAddr: 0x10000D380, symSize: 0x3C }
  - { offsetInCU: 0xFCCF, offset: 0xFCCF, size: 0x8, addend: 0x0, symName: __ZNSt3__125__debug_db_invalidate_allB7v160006INS_6vectorIPK15ListenStatementNS_9allocatorIS4_EEEEEEvPT_, symObjAddr: 0x9B20, symBinAddr: 0x10000D468, symSize: 0x10 }
  - { offsetInCU: 0xFD00, offset: 0xFD00, size: 0x8, addend: 0x0, symName: __ZNSt3__1neB7v160006IPPK15ListenStatementS4_EEbRKNS_16reverse_iteratorIT_EERKNS5_IT0_EE, symObjAddr: 0x9B78, symBinAddr: 0x10000D4C0, symSize: 0x48 }
  - { offsetInCU: 0xFD71, offset: 0xFD71, size: 0x8, addend: 0x0, symName: __ZNSt3__114__construct_atB7v160006IPK15ListenStatementJS3_EPS3_EEPT_S6_DpOT0_, symObjAddr: 0x9BC0, symBinAddr: 0x10000D508, symSize: 0x2C }
  - { offsetInCU: 0xFDE1, offset: 0xFDE1, size: 0x8, addend: 0x0, symName: __ZNSt3__112__to_addressB7v160006INS_16reverse_iteratorIPPK15ListenStatementEEvEENS_5decayIDTclsr19__to_address_helperIT_EE6__callclsr3stdE7declvalIRKS8_EEEEE4typeESA_, symObjAddr: 0x9BEC, symBinAddr: 0x10000D534, symSize: 0x24 }
  - { offsetInCU: 0xFE17, offset: 0xFE17, size: 0x8, addend: 0x0, symName: __ZNSt3__14moveB7v160006INS_16reverse_iteratorIPPK15ListenStatementEES6_EET0_T_S8_S7_, symObjAddr: 0x9C58, symBinAddr: 0x10000D5A0, symSize: 0x78 }
  - { offsetInCU: 0xFE9A, offset: 0xFE9A, size: 0x8, addend: 0x0, symName: __ZNSt3__16__moveB7v160006INS_17_ClassicAlgPolicyENS_16reverse_iteratorIPPK15ListenStatementEES7_S7_EENS_4pairIT0_T2_EES9_T1_SA_, symObjAddr: 0x9D40, symBinAddr: 0x10000D688, symSize: 0x64 }
  - { offsetInCU: 0xFF06, offset: 0xFF06, size: 0x8, addend: 0x0, symName: __ZNSt3__123__dispatch_copy_or_moveB7v160006INS_17_ClassicAlgPolicyENS_11__move_loopIS1_EENS_14__move_trivialENS_16reverse_iteratorIPPK15ListenStatementEESA_SA_EENS_4pairIT2_T4_EESC_T3_SD_, symObjAddr: 0x9DA4, symBinAddr: 0x10000D6EC, symSize: 0x7C }
  - { offsetInCU: 0xFF84, offset: 0xFF84, size: 0x8, addend: 0x0, symName: __ZNSt3__121__unwrap_and_dispatchB7v160006INS_10__overloadINS_11__move_loopINS_17_ClassicAlgPolicyEEENS_14__move_trivialEEENS_16reverse_iteratorIPPK15ListenStatementEESC_SC_Li0EEENS_4pairIT0_T2_EESE_T1_SF_, symObjAddr: 0x9E20, symBinAddr: 0x10000D768, symSize: 0x12C }
  - { offsetInCU: 0x10014, offset: 0x10014, size: 0x8, addend: 0x0, symName: __ZNSt3__114__unwrap_rangeB7v160006INS_16reverse_iteratorIPPK15ListenStatementEES6_EENS_4pairIT0_S8_EET_SA_, symObjAddr: 0x9F4C, symBinAddr: 0x10000D894, symSize: 0x84 }
  - { offsetInCU: 0x1010D, offset: 0x1010D, size: 0x8, addend: 0x0, symName: __ZNSt3__113__unwrap_iterB7v160006INS_16reverse_iteratorIPPK15ListenStatementEENS_18__unwrap_iter_implIS6_Lb0EEELi0EEEDTclsrT0_8__unwrapclsr3stdE7declvalIT_EEEESA_, symObjAddr: 0xA070, symBinAddr: 0x10000D9B8, symSize: 0x44 }
  - { offsetInCU: 0x10151, offset: 0x10151, size: 0x8, addend: 0x0, symName: __ZNSt3__19make_pairB7v160006INS_16reverse_iteratorIPPK15ListenStatementEES6_EENS_4pairINS_18__unwrap_ref_decayIT_E4typeENS8_IT0_E4typeEEEOS9_OSC_, symObjAddr: 0xA0B4, symBinAddr: 0x10000D9FC, symSize: 0x38 }
  - { offsetInCU: 0x101A0, offset: 0x101A0, size: 0x8, addend: 0x0, symName: __ZNSt3__114__rewrap_rangeB7v160006INS_16reverse_iteratorIPPK15ListenStatementEES6_EET_S7_T0_, symObjAddr: 0xA0EC, symBinAddr: 0x10000DA34, symSize: 0x5C }
  - { offsetInCU: 0x101EC, offset: 0x101EC, size: 0x8, addend: 0x0, symName: __ZNSt3__113__rewrap_iterB7v160006INS_16reverse_iteratorIPPK15ListenStatementEES6_NS_18__unwrap_iter_implIS6_Lb0EEEEET_S9_T0_, symObjAddr: 0xA148, symBinAddr: 0x10000DA90, symSize: 0x88 }
  - { offsetInCU: 0x102AD, offset: 0x102AD, size: 0x8, addend: 0x0, symName: __ZNSt3__112__to_addressB7v160006IPK17LocationStatementEEPT_S5_, symObjAddr: 0xA82C, symBinAddr: 0x10000E174, symSize: 0x14 }
  - { offsetInCU: 0x102E2, offset: 0x102E2, size: 0x8, addend: 0x0, symName: __ZNSt3__119__allocate_at_leastB7v160006INS_9allocatorIPK17LocationStatementEEEENS_19__allocation_resultINS_16allocator_traitsIT_E7pointerEEERS8_m, symObjAddr: 0xAE6C, symBinAddr: 0x10000E7B4, symSize: 0x40 }
  - { offsetInCU: 0x10325, offset: 0x10325, size: 0x8, addend: 0x0, symName: __ZNSt3__142__uninitialized_allocator_move_if_noexceptB7v160006INS_9allocatorIPK17LocationStatementEENS_16reverse_iteratorIPS4_EES8_S4_vEET1_RT_T0_SC_S9_, symObjAddr: 0xB120, symBinAddr: 0x10000EA68, symSize: 0xE8 }
  - { offsetInCU: 0x103A2, offset: 0x103A2, size: 0x8, addend: 0x0, symName: __ZNSt3__14swapB7v160006IPPK17LocationStatementEEvRT_S6_, symObjAddr: 0xB254, symBinAddr: 0x10000EB9C, symSize: 0x3C }
  - { offsetInCU: 0x103F3, offset: 0x103F3, size: 0x8, addend: 0x0, symName: __ZNSt3__125__debug_db_invalidate_allB7v160006INS_6vectorIPK17LocationStatementNS_9allocatorIS4_EEEEEEvPT_, symObjAddr: 0xB33C, symBinAddr: 0x10000EC84, symSize: 0x10 }
  - { offsetInCU: 0x10424, offset: 0x10424, size: 0x8, addend: 0x0, symName: __ZNSt3__1neB7v160006IPPK17LocationStatementS4_EEbRKNS_16reverse_iteratorIT_EERKNS5_IT0_EE, symObjAddr: 0xB394, symBinAddr: 0x10000ECDC, symSize: 0x48 }
  - { offsetInCU: 0x10495, offset: 0x10495, size: 0x8, addend: 0x0, symName: __ZNSt3__114__construct_atB7v160006IPK17LocationStatementJS3_EPS3_EEPT_S6_DpOT0_, symObjAddr: 0xB3DC, symBinAddr: 0x10000ED24, symSize: 0x2C }
  - { offsetInCU: 0x10505, offset: 0x10505, size: 0x8, addend: 0x0, symName: __ZNSt3__112__to_addressB7v160006INS_16reverse_iteratorIPPK17LocationStatementEEvEENS_5decayIDTclsr19__to_address_helperIT_EE6__callclsr3stdE7declvalIRKS8_EEEEE4typeESA_, symObjAddr: 0xB408, symBinAddr: 0x10000ED50, symSize: 0x24 }
  - { offsetInCU: 0x1053B, offset: 0x1053B, size: 0x8, addend: 0x0, symName: __ZNSt3__14moveB7v160006INS_16reverse_iteratorIPPK17LocationStatementEES6_EET0_T_S8_S7_, symObjAddr: 0xB474, symBinAddr: 0x10000EDBC, symSize: 0x78 }
  - { offsetInCU: 0x105BE, offset: 0x105BE, size: 0x8, addend: 0x0, symName: __ZNSt3__16__moveB7v160006INS_17_ClassicAlgPolicyENS_16reverse_iteratorIPPK17LocationStatementEES7_S7_EENS_4pairIT0_T2_EES9_T1_SA_, symObjAddr: 0xB55C, symBinAddr: 0x10000EEA4, symSize: 0x64 }
  - { offsetInCU: 0x1062A, offset: 0x1062A, size: 0x8, addend: 0x0, symName: __ZNSt3__123__dispatch_copy_or_moveB7v160006INS_17_ClassicAlgPolicyENS_11__move_loopIS1_EENS_14__move_trivialENS_16reverse_iteratorIPPK17LocationStatementEESA_SA_EENS_4pairIT2_T4_EESC_T3_SD_, symObjAddr: 0xB5C0, symBinAddr: 0x10000EF08, symSize: 0x7C }
  - { offsetInCU: 0x106A8, offset: 0x106A8, size: 0x8, addend: 0x0, symName: __ZNSt3__121__unwrap_and_dispatchB7v160006INS_10__overloadINS_11__move_loopINS_17_ClassicAlgPolicyEEENS_14__move_trivialEEENS_16reverse_iteratorIPPK17LocationStatementEESC_SC_Li0EEENS_4pairIT0_T2_EESE_T1_SF_, symObjAddr: 0xB63C, symBinAddr: 0x10000EF84, symSize: 0x12C }
  - { offsetInCU: 0x10738, offset: 0x10738, size: 0x8, addend: 0x0, symName: __ZNSt3__114__unwrap_rangeB7v160006INS_16reverse_iteratorIPPK17LocationStatementEES6_EENS_4pairIT0_S8_EET_SA_, symObjAddr: 0xB768, symBinAddr: 0x10000F0B0, symSize: 0x84 }
  - { offsetInCU: 0x10831, offset: 0x10831, size: 0x8, addend: 0x0, symName: __ZNSt3__113__unwrap_iterB7v160006INS_16reverse_iteratorIPPK17LocationStatementEENS_18__unwrap_iter_implIS6_Lb0EEELi0EEEDTclsrT0_8__unwrapclsr3stdE7declvalIT_EEEESA_, symObjAddr: 0xB88C, symBinAddr: 0x10000F1D4, symSize: 0x44 }
  - { offsetInCU: 0x10875, offset: 0x10875, size: 0x8, addend: 0x0, symName: __ZNSt3__19make_pairB7v160006INS_16reverse_iteratorIPPK17LocationStatementEES6_EENS_4pairINS_18__unwrap_ref_decayIT_E4typeENS8_IT0_E4typeEEEOS9_OSC_, symObjAddr: 0xB8D0, symBinAddr: 0x10000F218, symSize: 0x38 }
  - { offsetInCU: 0x108C4, offset: 0x108C4, size: 0x8, addend: 0x0, symName: __ZNSt3__114__rewrap_rangeB7v160006INS_16reverse_iteratorIPPK17LocationStatementEES6_EET_S7_T0_, symObjAddr: 0xB908, symBinAddr: 0x10000F250, symSize: 0x5C }
  - { offsetInCU: 0x10910, offset: 0x10910, size: 0x8, addend: 0x0, symName: __ZNSt3__113__rewrap_iterB7v160006INS_16reverse_iteratorIPPK17LocationStatementEES6_NS_18__unwrap_iter_implIS6_Lb0EEEEET_S9_T0_, symObjAddr: 0xB964, symBinAddr: 0x10000F2AC, symSize: 0x88 }
  - { offsetInCU: 0x10C66, offset: 0x10C66, size: 0x8, addend: 0x0, symName: __ZSt28__throw_bad_array_new_lengthB7v160006v, symObjAddr: 0x45C8, symBinAddr: 0x100007F10, symSize: 0x34 }
  - { offsetInCU: 0x11E78, offset: 0x11E78, size: 0x8, addend: 0x0, symName: __ZNSt3__16vectorIP15ServerStatementNS_9allocatorIS2_EEE26__swap_out_circular_bufferERNS_14__split_bufferIS2_RS4_EE, symObjAddr: 0x3DFC, symBinAddr: 0x100007744, symSize: 0x118 }
  - { offsetInCU: 0x11F86, offset: 0x11F86, size: 0x8, addend: 0x0, symName: __ZNSt3__16vectorINS_12basic_stringIcNS_11char_traitsIcEENS_9allocatorIcEEEENS4_IS6_EEE26__swap_out_circular_bufferERNS_14__split_bufferIS6_RS7_EE, symObjAddr: 0x6104, symBinAddr: 0x100009A4C, symSize: 0x118 }
  - { offsetInCU: 0x12019, offset: 0x12019, size: 0x8, addend: 0x0, symName: __ZNSt3__16vectorIPK15ListenStatementNS_9allocatorIS3_EEE26__swap_out_circular_bufferERNS_14__split_bufferIS3_RS5_EE, symObjAddr: 0x9234, symBinAddr: 0x10000CB7C, symSize: 0x118 }
  - { offsetInCU: 0x12070, offset: 0x12070, size: 0x8, addend: 0x0, symName: __ZNSt3__16vectorIPK17LocationStatementNS_9allocatorIS3_EEE26__swap_out_circular_bufferERNS_14__split_bufferIS3_RS5_EE, symObjAddr: 0xAA50, symBinAddr: 0x10000E398, symSize: 0x118 }
  - { offsetInCU: 0x143C2, offset: 0x143C2, size: 0x8, addend: 0x0, symName: __ZN6ParserC2EP5Lexer, symObjAddr: 0x0, symBinAddr: 0x100003948, symSize: 0x7C }
  - { offsetInCU: 0x143FC, offset: 0x143FC, size: 0x8, addend: 0x0, symName: __ZNSt3__16vectorINS_12basic_stringIcNS_11char_traitsIcEENS_9allocatorIcEEEENS4_IS6_EEEC1B7v160006Ev, symObjAddr: 0x7C, symBinAddr: 0x1000039C4, symSize: 0x2C }
  - { offsetInCU: 0x14426, offset: 0x14426, size: 0x8, addend: 0x0, symName: __ZN6Parser10next_tokenEv, symObjAddr: 0xA8, symBinAddr: 0x1000039F0, symSize: 0x3C }
  - { offsetInCU: 0x1444E, offset: 0x1444E, size: 0x8, addend: 0x0, symName: __ZNSt3__16vectorINS_12basic_stringIcNS_11char_traitsIcEENS_9allocatorIcEEEENS4_IS6_EEED1B7v160006Ev, symObjAddr: 0xE4, symBinAddr: 0x100003A2C, symSize: 0x2C }
  - { offsetInCU: 0x14478, offset: 0x14478, size: 0x8, addend: 0x0, symName: __ZN6ParserC1EP5Lexer, symObjAddr: 0x11C, symBinAddr: 0x100003A64, symSize: 0x34 }
  - { offsetInCU: 0x144B2, offset: 0x144B2, size: 0x8, addend: 0x0, symName: __ZN6ParserD2Ev, symObjAddr: 0x150, symBinAddr: 0x100003A98, symSize: 0xB8 }
  - { offsetInCU: 0x144DE, offset: 0x144DE, size: 0x8, addend: 0x0, symName: __ZN6ParserD1Ev, symObjAddr: 0x208, symBinAddr: 0x100003B50, symSize: 0x2C }
  - { offsetInCU: 0x1450A, offset: 0x1450A, size: 0x8, addend: 0x0, symName: __ZN6ParserC2ENSt3__112basic_stringIcNS0_11char_traitsIcEENS0_9allocatorIcEEEE, symObjAddr: 0x234, symBinAddr: 0x100003B7C, symSize: 0x280 }
  - { offsetInCU: 0x1456B, offset: 0x1456B, size: 0x8, addend: 0x0, symName: __ZNKSt3__112basic_stringIcNS_11char_traitsIcEENS_9allocatorIcEEE5c_strB7v160006Ev, symObjAddr: 0x4B4, symBinAddr: 0x100003DFC, symSize: 0x24 }
  - { offsetInCU: 0x1462E, offset: 0x1462E, size: 0x8, addend: 0x0, symName: __ZNSt3__114basic_ifstreamIcNS_11char_traitsIcEEEC1EPKcj, symObjAddr: 0x4D8, symBinAddr: 0x100003E20, symSize: 0x17C }
  - { offsetInCU: 0x14678, offset: 0x14678, size: 0x8, addend: 0x0, symName: __ZNKSt3__114basic_ifstreamIcNS_11char_traitsIcEEE7is_openEv, symObjAddr: 0x654, symBinAddr: 0x100003F9C, symSize: 0x2C }
  - { offsetInCU: 0x146A5, offset: 0x146A5, size: 0x8, addend: 0x0, symName: __ZNSt3__112basic_stringIcNS_11char_traitsIcEENS_9allocatorIcEEEC1B7v160006IDnEEPKc, symObjAddr: 0x680, symBinAddr: 0x100003FC8, symSize: 0x34 }
  - { offsetInCU: 0x14733, offset: 0x14733, size: 0x8, addend: 0x0, symName: __ZNSt3__119basic_ostringstreamIcNS_11char_traitsIcEENS_9allocatorIcEEEC1B7v160006Ev, symObjAddr: 0x6B4, symBinAddr: 0x100003FFC, symSize: 0xF8 }
  - { offsetInCU: 0x1475D, offset: 0x1475D, size: 0x8, addend: 0x0, symName: __ZNKSt3__114basic_ifstreamIcNS_11char_traitsIcEEE5rdbufEv, symObjAddr: 0x7AC, symBinAddr: 0x1000040F4, symSize: 0x18 }
  - { offsetInCU: 0x14785, offset: 0x14785, size: 0x8, addend: 0x0, symName: __ZNKSt3__119basic_ostringstreamIcNS_11char_traitsIcEENS_9allocatorIcEEE3strB7v160006Ev, symObjAddr: 0x7C4, symBinAddr: 0x10000410C, symSize: 0x30 }
  - { offsetInCU: 0x147B0, offset: 0x147B0, size: 0x8, addend: 0x0, symName: __ZNSt3__119basic_ostringstreamIcNS_11char_traitsIcEENS_9allocatorIcEEED1Ev, symObjAddr: 0x7F4, symBinAddr: 0x10000413C, symSize: 0x70 }
  - { offsetInCU: 0x147E2, offset: 0x147E2, size: 0x8, addend: 0x0, symName: __ZNSt3__114basic_ifstreamIcNS_11char_traitsIcEEED1Ev, symObjAddr: 0x864, symBinAddr: 0x1000041AC, symSize: 0x70 }
  - { offsetInCU: 0x1480F, offset: 0x1480F, size: 0x8, addend: 0x0, symName: __ZN6ParserC1ENSt3__112basic_stringIcNS0_11char_traitsIcEENS0_9allocatorIcEEEE, symObjAddr: 0x8D4, symBinAddr: 0x10000421C, symSize: 0x34 }
  - { offsetInCU: 0x1484A, offset: 0x1484A, size: 0x8, addend: 0x0, symName: __ZN6Parser11ParseConfigEv, symObjAddr: 0x908, symBinAddr: 0x100004250, symSize: 0xC4 }
  - { offsetInCU: 0x14885, offset: 0x14885, size: 0x8, addend: 0x0, symName: __ZN12ServerConfigC1Ev, symObjAddr: 0x9CC, symBinAddr: 0x100004314, symSize: 0x2C }
  - { offsetInCU: 0x148B1, offset: 0x148B1, size: 0x8, addend: 0x0, symName: __ZNSt3__16vectorIP15ServerStatementNS_9allocatorIS2_EEE9push_backB7v160006EOS2_, symObjAddr: 0x9F8, symBinAddr: 0x100004340, symSize: 0x6C }
  - { offsetInCU: 0x148E8, offset: 0x148E8, size: 0x8, addend: 0x0, symName: __ZN6Parser15parse_statementEv, symObjAddr: 0xA64, symBinAddr: 0x1000043AC, symSize: 0xD0 }
  - { offsetInCU: 0x14910, offset: 0x14910, size: 0x8, addend: 0x0, symName: __ZN6Parser22parse_server_statementEv, symObjAddr: 0xB34, symBinAddr: 0x10000447C, symSize: 0x148 }
  - { offsetInCU: 0x14946, offset: 0x14946, size: 0x8, addend: 0x0, symName: __ZN6Parser22parse_listen_statementEv, symObjAddr: 0xC7C, symBinAddr: 0x1000045C4, symSize: 0x180 }
  - { offsetInCU: 0x1497C, offset: 0x1497C, size: 0x8, addend: 0x0, symName: __ZN6Parser11expect_peekE10token_type, symObjAddr: 0xDFC, symBinAddr: 0x100004744, symSize: 0x7C }
  - { offsetInCU: 0x149B2, offset: 0x149B2, size: 0x8, addend: 0x0, symName: __ZN6Parser16current_token_isE10token_type, symObjAddr: 0xE78, symBinAddr: 0x1000047C0, symSize: 0x3C }
  - { offsetInCU: 0x149E8, offset: 0x149E8, size: 0x8, addend: 0x0, symName: __ZN6Parser13peek_token_isE10token_type, symObjAddr: 0xEB4, symBinAddr: 0x1000047FC, symSize: 0x3C }
  - { offsetInCU: 0x14A1E, offset: 0x14A1E, size: 0x8, addend: 0x0, symName: __ZN6Parser10peek_errorE10token_type, symObjAddr: 0xEF0, symBinAddr: 0x100004838, symSize: 0x158 }
  - { offsetInCU: 0x14A95, offset: 0x14A95, size: 0x8, addend: 0x0, symName: __ZNSt3__118basic_stringstreamIcNS_11char_traitsIcEENS_9allocatorIcEEEC1B7v160006Ev, symObjAddr: 0x1048, symBinAddr: 0x100004990, symSize: 0x110 }
  - { offsetInCU: 0x14ABF, offset: 0x14ABF, size: 0x8, addend: 0x0, symName: __ZNSt3__113basic_ostreamIcNS_11char_traitsIcEEElsB7v160006EPFRS3_S4_E, symObjAddr: 0x11A0, symBinAddr: 0x100004AE8, symSize: 0x2C }
  - { offsetInCU: 0x14AF3, offset: 0x14AF3, size: 0x8, addend: 0x0, symName: __ZNSt3__16vectorINS_12basic_stringIcNS_11char_traitsIcEENS_9allocatorIcEEEENS4_IS6_EEE9push_backB7v160006EOS6_, symObjAddr: 0x1224, symBinAddr: 0x100004B6C, symSize: 0x6C }
  - { offsetInCU: 0x14B2A, offset: 0x14B2A, size: 0x8, addend: 0x0, symName: __ZNKSt3__118basic_stringstreamIcNS_11char_traitsIcEENS_9allocatorIcEEE3strB7v160006Ev, symObjAddr: 0x1290, symBinAddr: 0x100004BD8, symSize: 0x30 }
  - { offsetInCU: 0x14B55, offset: 0x14B55, size: 0x8, addend: 0x0, symName: __ZNSt3__118basic_stringstreamIcNS_11char_traitsIcEENS_9allocatorIcEEED1Ev, symObjAddr: 0x12C0, symBinAddr: 0x100004C08, symSize: 0x70 }
  - { offsetInCU: 0x14B82, offset: 0x14B82, size: 0x8, addend: 0x0, symName: __ZN6Parser19check_parser_errorsEv, symObjAddr: 0x1330, symBinAddr: 0x100004C78, symSize: 0xD4 }
  - { offsetInCU: 0x14BC6, offset: 0x14BC6, size: 0x8, addend: 0x0, symName: __ZNKSt3__16vectorINS_12basic_stringIcNS_11char_traitsIcEENS_9allocatorIcEEEENS4_IS6_EEE4sizeB7v160006Ev, symObjAddr: 0x1404, symBinAddr: 0x100004D4C, symSize: 0x28 }
  - { offsetInCU: 0x14BEC, offset: 0x14BEC, size: 0x8, addend: 0x0, symName: __ZNSt3__16vectorINS_12basic_stringIcNS_11char_traitsIcEENS_9allocatorIcEEEENS4_IS6_EEEixB7v160006Em, symObjAddr: 0x142C, symBinAddr: 0x100004D74, symSize: 0x2C }
  - { offsetInCU: 0x14C23, offset: 0x14C23, size: 0x8, addend: 0x0, symName: __ZN6Parser20parse_root_statementEv, symObjAddr: 0x1458, symBinAddr: 0x100004DA0, symSize: 0x148 }
  - { offsetInCU: 0x14C59, offset: 0x14C59, size: 0x8, addend: 0x0, symName: __ZNSt3__112basic_stringIcNS_11char_traitsIcEENS_9allocatorIcEEEC1B7v160006Ev, symObjAddr: 0x15A0, symBinAddr: 0x100004EE8, symSize: 0x2C }
  - { offsetInCU: 0x14C83, offset: 0x14C83, size: 0x8, addend: 0x0, symName: __ZN6Parser27parse_server_name_statementEv, symObjAddr: 0x15CC, symBinAddr: 0x100004F14, symSize: 0x148 }
  - { offsetInCU: 0x14CB9, offset: 0x14CB9, size: 0x8, addend: 0x0, symName: __ZN6Parser36parse_client_max_body_size_statementEv, symObjAddr: 0x1714, symBinAddr: 0x10000505C, symSize: 0x148 }
  - { offsetInCU: 0x14CEF, offset: 0x14CEF, size: 0x8, addend: 0x0, symName: __ZN6Parser38parse_client_max_header_size_statementEv, symObjAddr: 0x185C, symBinAddr: 0x1000051A4, symSize: 0x148 }
  - { offsetInCU: 0x14D25, offset: 0x14D25, size: 0x8, addend: 0x0, symName: __ZN6Parser26parse_error_page_statementERNSt3__13mapINS0_12basic_stringIcNS0_11char_traitsIcEENS0_9allocatorIcEEEES7_NS0_4lessIS7_EENS5_INS0_4pairIKS7_S7_EEEEEE, symObjAddr: 0x19A4, symBinAddr: 0x1000052EC, symSize: 0x14C }
  - { offsetInCU: 0x14D77, offset: 0x14D77, size: 0x8, addend: 0x0, symName: __ZNSt3__13mapINS_12basic_stringIcNS_11char_traitsIcEENS_9allocatorIcEEEES6_NS_4lessIS6_EENS4_INS_4pairIKS6_S6_EEEEEixERSA_, symObjAddr: 0x1AF0, symBinAddr: 0x100005438, symSize: 0xC8 }
  - { offsetInCU: 0x14DF0, offset: 0x14DF0, size: 0x8, addend: 0x0, symName: __ZN6Parser34parse_inside_server_block_statmentEP15ServerStatement, symObjAddr: 0x1BB8, symBinAddr: 0x100005500, symSize: 0x1CC }
  - { offsetInCU: 0x14E26, offset: 0x14E26, size: 0x8, addend: 0x0, symName: __ZNSt3__16vectorIPK15ListenStatementNS_9allocatorIS3_EEE9push_backB7v160006EOS3_, symObjAddr: 0x1DA0, symBinAddr: 0x1000056E8, symSize: 0x6C }
  - { offsetInCU: 0x14E5D, offset: 0x14E5D, size: 0x8, addend: 0x0, symName: __ZNSt3__16vectorIPK17LocationStatementNS_9allocatorIS3_EEE9push_backB7v160006EOS3_, symObjAddr: 0x1E0C, symBinAddr: 0x100005754, symSize: 0x6C }
  - { offsetInCU: 0x14E94, offset: 0x14E94, size: 0x8, addend: 0x0, symName: __ZN6Parser24parse_location_statementEv, symObjAddr: 0x1E78, symBinAddr: 0x1000057C0, symSize: 0x1F8 }
  - { offsetInCU: 0x14ECC, offset: 0x14ECC, size: 0x8, addend: 0x0, symName: __ZN6Parser21parse_return_statmentEv, symObjAddr: 0x2070, symBinAddr: 0x1000059B8, symSize: 0x148 }
  - { offsetInCU: 0x14F04, offset: 0x14F04, size: 0x8, addend: 0x0, symName: __ZN6Parser25parse_autoindex_statementEv, symObjAddr: 0x21B8, symBinAddr: 0x100005B00, symSize: 0x15C }
  - { offsetInCU: 0x14F3C, offset: 0x14F3C, size: 0x8, addend: 0x0, symName: __ZN6Parser13isValidMethodE10token_type, symObjAddr: 0x23D4, symBinAddr: 0x100005D1C, symSize: 0x68 }
  - { offsetInCU: 0x14F74, offset: 0x14F74, size: 0x8, addend: 0x0, symName: __ZN6Parser29parse_allow_methods_statementERNSt3__16vectorINS0_12basic_stringIcNS0_11char_traitsIcEENS0_9allocatorIcEEEENS5_IS7_EEEE, symObjAddr: 0x243C, symBinAddr: 0x100005D84, symSize: 0xE0 }
  - { offsetInCU: 0x14FAC, offset: 0x14FAC, size: 0x8, addend: 0x0, symName: __ZN6Parser29parse_cgi_extensions_statmentERNSt3__16vectorINS0_12basic_stringIcNS0_11char_traitsIcEENS0_9allocatorIcEEEENS5_IS7_EEEE, symObjAddr: 0x251C, symBinAddr: 0x100005E64, symSize: 0xE0 }
  - { offsetInCU: 0x14FE4, offset: 0x14FE4, size: 0x8, addend: 0x0, symName: __ZN6Parser37parse_inside_location_block_statementEP17LocationStatement, symObjAddr: 0x25FC, symBinAddr: 0x100005F44, symSize: 0x140 }
  - { offsetInCU: 0x1501C, offset: 0x1501C, size: 0x8, addend: 0x0, symName: __ZNSt3__119basic_ostringstreamIcNS_11char_traitsIcEENS_9allocatorIcEEED2Ev, symObjAddr: 0x2750, symBinAddr: 0x100006098, symSize: 0x9C }
  - { offsetInCU: 0x15056, offset: 0x15056, size: 0x8, addend: 0x0, symName: __ZTv0_n24_NSt3__119basic_ostringstreamIcNS_11char_traitsIcEENS_9allocatorIcEEED1Ev, symObjAddr: 0x27EC, symBinAddr: 0x100006134, symSize: 0x28 }
  - { offsetInCU: 0x15072, offset: 0x15072, size: 0x8, addend: 0x0, symName: __ZNSt3__115basic_stringbufIcNS_11char_traitsIcEENS_9allocatorIcEEED1Ev, symObjAddr: 0x2814, symBinAddr: 0x10000615C, symSize: 0x2C }
  - { offsetInCU: 0x1509F, offset: 0x1509F, size: 0x8, addend: 0x0, symName: __ZNSt3__115basic_stringbufIcNS_11char_traitsIcEENS_9allocatorIcEEED2Ev, symObjAddr: 0x2840, symBinAddr: 0x100006188, symSize: 0x78 }
  - { offsetInCU: 0x150CC, offset: 0x150CC, size: 0x8, addend: 0x0, symName: __ZNSt3__114basic_ifstreamIcNS_11char_traitsIcEEED2Ev, symObjAddr: 0x28B8, symBinAddr: 0x100006200, symSize: 0x9C }
  - { offsetInCU: 0x15106, offset: 0x15106, size: 0x8, addend: 0x0, symName: __ZTv0_n24_NSt3__114basic_ifstreamIcNS_11char_traitsIcEEED1Ev, symObjAddr: 0x2954, symBinAddr: 0x10000629C, symSize: 0x28 }
  - { offsetInCU: 0x1511D, offset: 0x1511D, size: 0x8, addend: 0x0, symName: __ZN12ServerConfigC2Ev, symObjAddr: 0x297C, symBinAddr: 0x1000062C4, symSize: 0x2C }
  - { offsetInCU: 0x15149, offset: 0x15149, size: 0x8, addend: 0x0, symName: __ZNSt3__16vectorIP15ServerStatementNS_9allocatorIS2_EEEC1B7v160006Ev, symObjAddr: 0x29A8, symBinAddr: 0x1000062F0, symSize: 0x2C }
  - { offsetInCU: 0x15173, offset: 0x15173, size: 0x8, addend: 0x0, symName: __ZNSt3__16vectorIP15ServerStatementNS_9allocatorIS2_EEEC2B7v160006Ev, symObjAddr: 0x29D4, symBinAddr: 0x10000631C, symSize: 0x4C }
  - { offsetInCU: 0x151A7, offset: 0x151A7, size: 0x8, addend: 0x0, symName: __ZNSt3__117__compressed_pairIPP15ServerStatementNS_9allocatorIS2_EEEC1B7v160006IDnNS_18__default_init_tagEEEOT_OT0_, symObjAddr: 0x2A20, symBinAddr: 0x100006368, symSize: 0x3C }
  - { offsetInCU: 0x151FF, offset: 0x151FF, size: 0x8, addend: 0x0, symName: __ZNSt3__117__compressed_pairIPP15ServerStatementNS_9allocatorIS2_EEEC2B7v160006IDnNS_18__default_init_tagEEEOT_OT0_, symObjAddr: 0x2A6C, symBinAddr: 0x1000063B4, symSize: 0x40 }
  - { offsetInCU: 0x15257, offset: 0x15257, size: 0x8, addend: 0x0, symName: __ZNSt3__122__compressed_pair_elemIPP15ServerStatementLi0ELb0EEC2B7v160006IDnvEEOT_, symObjAddr: 0x2AAC, symBinAddr: 0x1000063F4, symSize: 0x1C }
  - { offsetInCU: 0x15299, offset: 0x15299, size: 0x8, addend: 0x0, symName: __ZNSt3__122__compressed_pair_elemINS_9allocatorIP15ServerStatementEELi1ELb1EEC2B7v160006ENS_18__default_init_tagE, symObjAddr: 0x2AC8, symBinAddr: 0x100006410, symSize: 0x2C }
  - { offsetInCU: 0x152CE, offset: 0x152CE, size: 0x8, addend: 0x0, symName: __ZNSt3__19allocatorIP15ServerStatementEC2B7v160006Ev, symObjAddr: 0x2AF4, symBinAddr: 0x10000643C, symSize: 0x2C }
  - { offsetInCU: 0x152F8, offset: 0x152F8, size: 0x8, addend: 0x0, symName: __ZNSt3__116__non_trivial_ifILb1ENS_9allocatorIP15ServerStatementEEEC2B7v160006Ev, symObjAddr: 0x2B20, symBinAddr: 0x100006468, symSize: 0x14 }
  - { offsetInCU: 0x15322, offset: 0x15322, size: 0x8, addend: 0x0, symName: __ZNSt3__118basic_stringstreamIcNS_11char_traitsIcEENS_9allocatorIcEEED2Ev, symObjAddr: 0x2B34, symBinAddr: 0x10000647C, symSize: 0xA4 }
  - { offsetInCU: 0x1535C, offset: 0x1535C, size: 0x8, addend: 0x0, symName: __ZThn16_NSt3__118basic_stringstreamIcNS_11char_traitsIcEENS_9allocatorIcEEED1Ev, symObjAddr: 0x2BD8, symBinAddr: 0x100006520, symSize: 0x1C }
  - { offsetInCU: 0x15373, offset: 0x15373, size: 0x8, addend: 0x0, symName: __ZTv0_n24_NSt3__118basic_stringstreamIcNS_11char_traitsIcEENS_9allocatorIcEEED1Ev, symObjAddr: 0x2BF4, symBinAddr: 0x10000653C, symSize: 0x28 }
  - { offsetInCU: 0x1538A, offset: 0x1538A, size: 0x8, addend: 0x0, symName: __ZNSt3__16vectorINS_12basic_stringIcNS_11char_traitsIcEENS_9allocatorIcEEEENS4_IS6_EEEC2B7v160006Ev, symObjAddr: 0x2C1C, symBinAddr: 0x100006564, symSize: 0x4C }
  - { offsetInCU: 0x153B4, offset: 0x153B4, size: 0x8, addend: 0x0, symName: __ZNSt3__117__compressed_pairIPNS_12basic_stringIcNS_11char_traitsIcEENS_9allocatorIcEEEENS4_IS6_EEEC1B7v160006IDnNS_18__default_init_tagEEEOT_OT0_, symObjAddr: 0x2C68, symBinAddr: 0x1000065B0, symSize: 0x3C }
  - { offsetInCU: 0x1540C, offset: 0x1540C, size: 0x8, addend: 0x0, symName: __ZNSt3__117__compressed_pairIPNS_12basic_stringIcNS_11char_traitsIcEENS_9allocatorIcEEEENS4_IS6_EEEC2B7v160006IDnNS_18__default_init_tagEEEOT_OT0_, symObjAddr: 0x2CB4, symBinAddr: 0x1000065FC, symSize: 0x40 }
  - { offsetInCU: 0x15464, offset: 0x15464, size: 0x8, addend: 0x0, symName: __ZNSt3__122__compressed_pair_elemIPNS_12basic_stringIcNS_11char_traitsIcEENS_9allocatorIcEEEELi0ELb0EEC2B7v160006IDnvEEOT_, symObjAddr: 0x2CF4, symBinAddr: 0x10000663C, symSize: 0x1C }
  - { offsetInCU: 0x154A6, offset: 0x154A6, size: 0x8, addend: 0x0, symName: __ZNSt3__122__compressed_pair_elemINS_9allocatorINS_12basic_stringIcNS_11char_traitsIcEENS1_IcEEEEEELi1ELb1EEC2B7v160006ENS_18__default_init_tagE, symObjAddr: 0x2D10, symBinAddr: 0x100006658, symSize: 0x2C }
  - { offsetInCU: 0x154DB, offset: 0x154DB, size: 0x8, addend: 0x0, symName: __ZNSt3__19allocatorINS_12basic_stringIcNS_11char_traitsIcEENS0_IcEEEEEC2B7v160006Ev, symObjAddr: 0x2D3C, symBinAddr: 0x100006684, symSize: 0x2C }
  - { offsetInCU: 0x15505, offset: 0x15505, size: 0x8, addend: 0x0, symName: __ZNSt3__116__non_trivial_ifILb1ENS_9allocatorINS_12basic_stringIcNS_11char_traitsIcEENS1_IcEEEEEEEC2B7v160006Ev, symObjAddr: 0x2D68, symBinAddr: 0x1000066B0, symSize: 0x14 }
  - { offsetInCU: 0x1552F, offset: 0x1552F, size: 0x8, addend: 0x0, symName: __ZNSt3__16vectorINS_12basic_stringIcNS_11char_traitsIcEENS_9allocatorIcEEEENS4_IS6_EEED2B7v160006Ev, symObjAddr: 0x2D7C, symBinAddr: 0x1000066C4, symSize: 0x3C }
  - { offsetInCU: 0x15559, offset: 0x15559, size: 0x8, addend: 0x0, symName: __ZNSt3__16vectorINS_12basic_stringIcNS_11char_traitsIcEENS_9allocatorIcEEEENS4_IS6_EEE16__destroy_vectorC1ERS8_, symObjAddr: 0x2DB8, symBinAddr: 0x100006700, symSize: 0x34 }
  - { offsetInCU: 0x15592, offset: 0x15592, size: 0x8, addend: 0x0, symName: __ZNSt3__16vectorINS_12basic_stringIcNS_11char_traitsIcEENS_9allocatorIcEEEENS4_IS6_EEE16__destroy_vectorclB7v160006Ev, symObjAddr: 0x2DEC, symBinAddr: 0x100006734, symSize: 0x9C }
  - { offsetInCU: 0x155B8, offset: 0x155B8, size: 0x8, addend: 0x0, symName: __ZNSt3__16vectorINS_12basic_stringIcNS_11char_traitsIcEENS_9allocatorIcEEEENS4_IS6_EEE16__destroy_vectorC2ERS8_, symObjAddr: 0x2E88, symBinAddr: 0x1000067D0, symSize: 0x20 }
  - { offsetInCU: 0x155F1, offset: 0x155F1, size: 0x8, addend: 0x0, symName: __ZNKSt3__16vectorINS_12basic_stringIcNS_11char_traitsIcEENS_9allocatorIcEEEENS4_IS6_EEE17__annotate_deleteB7v160006Ev, symObjAddr: 0x2EA8, symBinAddr: 0x1000067F0, symSize: 0xD4 }
  - { offsetInCU: 0x15617, offset: 0x15617, size: 0x8, addend: 0x0, symName: __ZNSt3__16vectorINS_12basic_stringIcNS_11char_traitsIcEENS_9allocatorIcEEEENS4_IS6_EEE7__clearB7v160006Ev, symObjAddr: 0x2F8C, symBinAddr: 0x1000068D4, symSize: 0x28 }
  - { offsetInCU: 0x1563D, offset: 0x1563D, size: 0x8, addend: 0x0, symName: __ZNSt3__116allocator_traitsINS_9allocatorINS_12basic_stringIcNS_11char_traitsIcEENS1_IcEEEEEEE10deallocateB7v160006ERS7_PS6_m, symObjAddr: 0x2FB4, symBinAddr: 0x1000068FC, symSize: 0x34 }
  - { offsetInCU: 0x1567F, offset: 0x1567F, size: 0x8, addend: 0x0, symName: __ZNSt3__16vectorINS_12basic_stringIcNS_11char_traitsIcEENS_9allocatorIcEEEENS4_IS6_EEE7__allocB7v160006Ev, symObjAddr: 0x2FE8, symBinAddr: 0x100006930, symSize: 0x28 }
  - { offsetInCU: 0x156A5, offset: 0x156A5, size: 0x8, addend: 0x0, symName: __ZNKSt3__16vectorINS_12basic_stringIcNS_11char_traitsIcEENS_9allocatorIcEEEENS4_IS6_EEE8capacityB7v160006Ev, symObjAddr: 0x3010, symBinAddr: 0x100006958, symSize: 0x40 }
  - { offsetInCU: 0x156CB, offset: 0x156CB, size: 0x8, addend: 0x0, symName: __ZNKSt3__16vectorINS_12basic_stringIcNS_11char_traitsIcEENS_9allocatorIcEEEENS4_IS6_EEE31__annotate_contiguous_containerB7v160006EPKvSA_SA_SA_, symObjAddr: 0x3050, symBinAddr: 0x100006998, symSize: 0x20 }
  - { offsetInCU: 0x1571D, offset: 0x1571D, size: 0x8, addend: 0x0, symName: __ZNKSt3__16vectorINS_12basic_stringIcNS_11char_traitsIcEENS_9allocatorIcEEEENS4_IS6_EEE4dataB7v160006Ev, symObjAddr: 0x3070, symBinAddr: 0x1000069B8, symSize: 0x28 }
  - { offsetInCU: 0x15743, offset: 0x15743, size: 0x8, addend: 0x0, symName: __ZNSt3__16vectorINS_12basic_stringIcNS_11char_traitsIcEENS_9allocatorIcEEEENS4_IS6_EEE22__base_destruct_at_endB7v160006EPS6_, symObjAddr: 0x30AC, symBinAddr: 0x1000069F4, symSize: 0xA0 }
  - { offsetInCU: 0x15787, offset: 0x15787, size: 0x8, addend: 0x0, symName: __ZNSt3__116allocator_traitsINS_9allocatorINS_12basic_stringIcNS_11char_traitsIcEENS1_IcEEEEEEE7destroyB7v160006IS6_vEEvRS7_PT_, symObjAddr: 0x314C, symBinAddr: 0x100006A94, symSize: 0x2C }
  - { offsetInCU: 0x157C4, offset: 0x157C4, size: 0x8, addend: 0x0, symName: __ZNSt3__19allocatorINS_12basic_stringIcNS_11char_traitsIcEENS0_IcEEEEE7destroyB7v160006EPS5_, symObjAddr: 0x3178, symBinAddr: 0x100006AC0, symSize: 0x28 }
  - { offsetInCU: 0x157F8, offset: 0x157F8, size: 0x8, addend: 0x0, symName: __ZNSt3__19allocatorINS_12basic_stringIcNS_11char_traitsIcEENS0_IcEEEEE10deallocateB7v160006EPS5_m, symObjAddr: 0x31A0, symBinAddr: 0x100006AE8, symSize: 0x74 }
  - { offsetInCU: 0x1583A, offset: 0x1583A, size: 0x8, addend: 0x0, symName: __ZNSt3__117__compressed_pairIPNS_12basic_stringIcNS_11char_traitsIcEENS_9allocatorIcEEEENS4_IS6_EEE6secondB7v160006Ev, symObjAddr: 0x329C, symBinAddr: 0x100006BE4, symSize: 0x24 }
  - { offsetInCU: 0x15860, offset: 0x15860, size: 0x8, addend: 0x0, symName: __ZNSt3__122__compressed_pair_elemINS_9allocatorINS_12basic_stringIcNS_11char_traitsIcEENS1_IcEEEEEELi1ELb1EE5__getB7v160006Ev, symObjAddr: 0x32C0, symBinAddr: 0x100006C08, symSize: 0x14 }
  - { offsetInCU: 0x15886, offset: 0x15886, size: 0x8, addend: 0x0, symName: __ZNKSt3__16vectorINS_12basic_stringIcNS_11char_traitsIcEENS_9allocatorIcEEEENS4_IS6_EEE9__end_capB7v160006Ev, symObjAddr: 0x32D4, symBinAddr: 0x100006C1C, symSize: 0x28 }
  - { offsetInCU: 0x158AC, offset: 0x158AC, size: 0x8, addend: 0x0, symName: __ZNKSt3__117__compressed_pairIPNS_12basic_stringIcNS_11char_traitsIcEENS_9allocatorIcEEEENS4_IS6_EEE5firstB7v160006Ev, symObjAddr: 0x32FC, symBinAddr: 0x100006C44, symSize: 0x24 }
  - { offsetInCU: 0x158D2, offset: 0x158D2, size: 0x8, addend: 0x0, symName: __ZNKSt3__122__compressed_pair_elemIPNS_12basic_stringIcNS_11char_traitsIcEENS_9allocatorIcEEEELi0ELb0EE5__getB7v160006Ev, symObjAddr: 0x3320, symBinAddr: 0x100006C68, symSize: 0x14 }
  - { offsetInCU: 0x158F8, offset: 0x158F8, size: 0x8, addend: 0x0, symName: __ZNKSt3__112basic_stringIcNS_11char_traitsIcEENS_9allocatorIcEEE4dataB7v160006Ev, symObjAddr: 0x3334, symBinAddr: 0x100006C7C, symSize: 0x28 }
  - { offsetInCU: 0x1591E, offset: 0x1591E, size: 0x8, addend: 0x0, symName: __ZNKSt3__112basic_stringIcNS_11char_traitsIcEENS_9allocatorIcEEE13__get_pointerB7v160006Ev, symObjAddr: 0x3370, symBinAddr: 0x100006CB8, symSize: 0x54 }
  - { offsetInCU: 0x15944, offset: 0x15944, size: 0x8, addend: 0x0, symName: __ZNKSt3__112basic_stringIcNS_11char_traitsIcEENS_9allocatorIcEEE9__is_longB7v160006Ev, symObjAddr: 0x33C4, symBinAddr: 0x100006D0C, symSize: 0x74 }
  - { offsetInCU: 0x1596A, offset: 0x1596A, size: 0x8, addend: 0x0, symName: __ZNKSt3__112basic_stringIcNS_11char_traitsIcEENS_9allocatorIcEEE18__get_long_pointerB7v160006Ev, symObjAddr: 0x3438, symBinAddr: 0x100006D80, symSize: 0x28 }
  - { offsetInCU: 0x15990, offset: 0x15990, size: 0x8, addend: 0x0, symName: __ZNKSt3__112basic_stringIcNS_11char_traitsIcEENS_9allocatorIcEEE19__get_short_pointerB7v160006Ev, symObjAddr: 0x3460, symBinAddr: 0x100006DA8, symSize: 0x28 }
  - { offsetInCU: 0x159B6, offset: 0x159B6, size: 0x8, addend: 0x0, symName: __ZNKSt3__117__compressed_pairINS_12basic_stringIcNS_11char_traitsIcEENS_9allocatorIcEEE5__repES5_E5firstB7v160006Ev, symObjAddr: 0x3488, symBinAddr: 0x100006DD0, symSize: 0x24 }
  - { offsetInCU: 0x159DC, offset: 0x159DC, size: 0x8, addend: 0x0, symName: __ZNKSt3__122__compressed_pair_elemINS_12basic_stringIcNS_11char_traitsIcEENS_9allocatorIcEEE5__repELi0ELb0EE5__getB7v160006Ev, symObjAddr: 0x34AC, symBinAddr: 0x100006DF4, symSize: 0x14 }
  - { offsetInCU: 0x15A02, offset: 0x15A02, size: 0x8, addend: 0x0, symName: __ZNSt3__114pointer_traitsIPKcE10pointer_toB7v160006ERS1_, symObjAddr: 0x34C0, symBinAddr: 0x100006E08, symSize: 0x14 }
  - { offsetInCU: 0x15A25, offset: 0x15A25, size: 0x8, addend: 0x0, symName: __ZNSt3__19basic_iosIcNS_11char_traitsIcEEEC2B7v160006Ev, symObjAddr: 0x34D4, symBinAddr: 0x100006E1C, symSize: 0x44 }
  - { offsetInCU: 0x15A4F, offset: 0x15A4F, size: 0x8, addend: 0x0, symName: __ZNSt3__113basic_istreamIcNS_11char_traitsIcEEEC2B7v160006EPNS_15basic_streambufIcS2_EE, symObjAddr: 0x3518, symBinAddr: 0x100006E60, symSize: 0x64 }
  - { offsetInCU: 0x15A94, offset: 0x15A94, size: 0x8, addend: 0x0, symName: __ZNSt3__19basic_iosIcNS_11char_traitsIcEEE8setstateB7v160006Ej, symObjAddr: 0x357C, symBinAddr: 0x100006EC4, symSize: 0x2C }
  - { offsetInCU: 0x15AC9, offset: 0x15AC9, size: 0x8, addend: 0x0, symName: __ZNSt3__18ios_baseC2B7v160006Ev, symObjAddr: 0x35A8, symBinAddr: 0x100006EF0, symSize: 0x24 }
  - { offsetInCU: 0x15AF3, offset: 0x15AF3, size: 0x8, addend: 0x0, symName: __ZNSt3__19basic_iosIcNS_11char_traitsIcEEE4initB7v160006EPNS_15basic_streambufIcS2_EE, symObjAddr: 0x35CC, symBinAddr: 0x100006F14, symSize: 0x44 }
  - { offsetInCU: 0x15B2A, offset: 0x15B2A, size: 0x8, addend: 0x0, symName: __ZNSt3__111char_traitsIcE3eofEv, symObjAddr: 0x3610, symBinAddr: 0x100006F58, symSize: 0x8 }
  - { offsetInCU: 0x15B3E, offset: 0x15B3E, size: 0x8, addend: 0x0, symName: __ZNSt3__18ios_base8setstateB7v160006Ej, symObjAddr: 0x3618, symBinAddr: 0x100006F60, symSize: 0x34 }
  - { offsetInCU: 0x15B75, offset: 0x15B75, size: 0x8, addend: 0x0, symName: __ZNKSt3__113basic_filebufIcNS_11char_traitsIcEEE7is_openEv, symObjAddr: 0x364C, symBinAddr: 0x100006F94, symSize: 0x24 }
  - { offsetInCU: 0x15B9D, offset: 0x15B9D, size: 0x8, addend: 0x0, symName: __ZNSt3__112basic_stringIcNS_11char_traitsIcEENS_9allocatorIcEEEC2B7v160006IDnEEPKc, symObjAddr: 0x3670, symBinAddr: 0x100006FB8, symSize: 0x60 }
  - { offsetInCU: 0x15BDB, offset: 0x15BDB, size: 0x8, addend: 0x0, symName: __ZNSt3__117__compressed_pairINS_12basic_stringIcNS_11char_traitsIcEENS_9allocatorIcEEE5__repES5_EC1B7v160006INS_18__default_init_tagESA_EEOT_OT0_, symObjAddr: 0x36D0, symBinAddr: 0x100007018, symSize: 0x3C }
  - { offsetInCU: 0x15C33, offset: 0x15C33, size: 0x8, addend: 0x0, symName: __ZNSt3__111char_traitsIcE6lengthEPKc, symObjAddr: 0x370C, symBinAddr: 0x100007054, symSize: 0x48 }
  - { offsetInCU: 0x15C56, offset: 0x15C56, size: 0x8, addend: 0x0, symName: __ZNSt3__117__compressed_pairINS_12basic_stringIcNS_11char_traitsIcEENS_9allocatorIcEEE5__repES5_EC2B7v160006INS_18__default_init_tagESA_EEOT_OT0_, symObjAddr: 0x3764, symBinAddr: 0x1000070AC, symSize: 0x3C }
  - { offsetInCU: 0x15CAE, offset: 0x15CAE, size: 0x8, addend: 0x0, symName: __ZNSt3__122__compressed_pair_elemINS_12basic_stringIcNS_11char_traitsIcEENS_9allocatorIcEEE5__repELi0ELb0EEC2B7v160006ENS_18__default_init_tagE, symObjAddr: 0x37A0, symBinAddr: 0x1000070E8, symSize: 0x14 }
  - { offsetInCU: 0x15CE3, offset: 0x15CE3, size: 0x8, addend: 0x0, symName: __ZNSt3__122__compressed_pair_elemINS_9allocatorIcEELi1ELb1EEC2B7v160006ENS_18__default_init_tagE, symObjAddr: 0x37B4, symBinAddr: 0x1000070FC, symSize: 0x2C }
  - { offsetInCU: 0x15D18, offset: 0x15D18, size: 0x8, addend: 0x0, symName: __ZNSt3__19allocatorIcEC2B7v160006Ev, symObjAddr: 0x37E0, symBinAddr: 0x100007128, symSize: 0x2C }
  - { offsetInCU: 0x15D42, offset: 0x15D42, size: 0x8, addend: 0x0, symName: __ZNSt3__116__non_trivial_ifILb1ENS_9allocatorIcEEEC2B7v160006Ev, symObjAddr: 0x380C, symBinAddr: 0x100007154, symSize: 0x14 }
  - { offsetInCU: 0x15D6C, offset: 0x15D6C, size: 0x8, addend: 0x0, symName: __ZNSt3__113basic_ostreamIcNS_11char_traitsIcEEEC2B7v160006EPNS_15basic_streambufIcS2_EE, symObjAddr: 0x3844, symBinAddr: 0x10000718C, symSize: 0x60 }
  - { offsetInCU: 0x15DB1, offset: 0x15DB1, size: 0x8, addend: 0x0, symName: __ZNSt3__115basic_stringbufIcNS_11char_traitsIcEENS_9allocatorIcEEEC1B7v160006Ej, symObjAddr: 0x38A4, symBinAddr: 0x1000071EC, symSize: 0x34 }
  - { offsetInCU: 0x15DE9, offset: 0x15DE9, size: 0x8, addend: 0x0, symName: __ZNSt3__115basic_stringbufIcNS_11char_traitsIcEENS_9allocatorIcEEEC2B7v160006Ej, symObjAddr: 0x38D8, symBinAddr: 0x100007220, symSize: 0x90 }
  - { offsetInCU: 0x15E21, offset: 0x15E21, size: 0x8, addend: 0x0, symName: __ZNSt3__16vectorIP15ServerStatementNS_9allocatorIS2_EEE9__end_capB7v160006Ev, symObjAddr: 0x3968, symBinAddr: 0x1000072B0, symSize: 0x28 }
  - { offsetInCU: 0x15E4C, offset: 0x15E4C, size: 0x8, addend: 0x0, symName: __ZNSt3__16vectorIP15ServerStatementNS_9allocatorIS2_EEE22__construct_one_at_endB7v160006IJS2_EEEvDpOT_, symObjAddr: 0x3990, symBinAddr: 0x1000072D8, symSize: 0x98 }
  - { offsetInCU: 0x15E9B, offset: 0x15E9B, size: 0x8, addend: 0x0, symName: __ZNSt3__16vectorIP15ServerStatementNS_9allocatorIS2_EEE21__push_back_slow_pathIS2_EEvOT_, symObjAddr: 0x3A28, symBinAddr: 0x100007370, symSize: 0xE0 }
  - { offsetInCU: 0x15EF9, offset: 0x15EF9, size: 0x8, addend: 0x0, symName: __ZNSt3__117__compressed_pairIPP15ServerStatementNS_9allocatorIS2_EEE5firstB7v160006Ev, symObjAddr: 0x3B08, symBinAddr: 0x100007450, symSize: 0x24 }
  - { offsetInCU: 0x15F1F, offset: 0x15F1F, size: 0x8, addend: 0x0, symName: __ZNSt3__122__compressed_pair_elemIPP15ServerStatementLi0ELb0EE5__getB7v160006Ev, symObjAddr: 0x3B2C, symBinAddr: 0x100007474, symSize: 0x14 }
  - { offsetInCU: 0x15F5E, offset: 0x15F5E, size: 0x8, addend: 0x0, symName: __ZNSt3__16vectorIP15ServerStatementNS_9allocatorIS2_EEE21_ConstructTransactionC1B7v160006ERS5_m, symObjAddr: 0x3B40, symBinAddr: 0x100007488, symSize: 0x3C }
  - { offsetInCU: 0x15FA6, offset: 0x15FA6, size: 0x8, addend: 0x0, symName: __ZNSt3__116allocator_traitsINS_9allocatorIP15ServerStatementEEE9constructB7v160006IS3_JS3_EvEEvRS4_PT_DpOT0_, symObjAddr: 0x3B7C, symBinAddr: 0x1000074C4, symSize: 0x34 }
  - { offsetInCU: 0x15FFD, offset: 0x15FFD, size: 0x8, addend: 0x0, symName: __ZNSt3__16vectorIP15ServerStatementNS_9allocatorIS2_EEE7__allocB7v160006Ev, symObjAddr: 0x3BB0, symBinAddr: 0x1000074F8, symSize: 0x28 }
  - { offsetInCU: 0x16023, offset: 0x16023, size: 0x8, addend: 0x0, symName: __ZNSt3__16vectorIP15ServerStatementNS_9allocatorIS2_EEE21_ConstructTransactionD1B7v160006Ev, symObjAddr: 0x3BEC, symBinAddr: 0x100007534, symSize: 0x2C }
  - { offsetInCU: 0x1604D, offset: 0x1604D, size: 0x8, addend: 0x0, symName: __ZNSt3__16vectorIP15ServerStatementNS_9allocatorIS2_EEE21_ConstructTransactionC2B7v160006ERS5_m, symObjAddr: 0x3C18, symBinAddr: 0x100007560, symSize: 0x44 }
  - { offsetInCU: 0x16095, offset: 0x16095, size: 0x8, addend: 0x0, symName: __ZNSt3__19allocatorIP15ServerStatementE9constructB7v160006IS2_JS2_EEEvPT_DpOT0_, symObjAddr: 0x3C5C, symBinAddr: 0x1000075A4, symSize: 0x28 }
  - { offsetInCU: 0x160EB, offset: 0x160EB, size: 0x8, addend: 0x0, symName: __ZNSt3__117__compressed_pairIPP15ServerStatementNS_9allocatorIS2_EEE6secondB7v160006Ev, symObjAddr: 0x3C84, symBinAddr: 0x1000075CC, symSize: 0x24 }
  - { offsetInCU: 0x16111, offset: 0x16111, size: 0x8, addend: 0x0, symName: __ZNSt3__122__compressed_pair_elemINS_9allocatorIP15ServerStatementEELi1ELb1EE5__getB7v160006Ev, symObjAddr: 0x3CA8, symBinAddr: 0x1000075F0, symSize: 0x14 }
  - { offsetInCU: 0x16137, offset: 0x16137, size: 0x8, addend: 0x0, symName: __ZNSt3__16vectorIP15ServerStatementNS_9allocatorIS2_EEE21_ConstructTransactionD2B7v160006Ev, symObjAddr: 0x3CBC, symBinAddr: 0x100007604, symSize: 0x20 }
  - { offsetInCU: 0x16161, offset: 0x16161, size: 0x8, addend: 0x0, symName: __ZNKSt3__16vectorIP15ServerStatementNS_9allocatorIS2_EEE11__recommendB7v160006Em, symObjAddr: 0x3CDC, symBinAddr: 0x100007624, symSize: 0xB4 }
  - { offsetInCU: 0x161B6, offset: 0x161B6, size: 0x8, addend: 0x0, symName: __ZNKSt3__16vectorIP15ServerStatementNS_9allocatorIS2_EEE4sizeB7v160006Ev, symObjAddr: 0x3D90, symBinAddr: 0x1000076D8, symSize: 0x28 }
  - { offsetInCU: 0x161DC, offset: 0x161DC, size: 0x8, addend: 0x0, symName: __ZNSt3__114__split_bufferIP15ServerStatementRNS_9allocatorIS2_EEEC1EmmS5_, symObjAddr: 0x3DB8, symBinAddr: 0x100007700, symSize: 0x44 }
  - { offsetInCU: 0x16232, offset: 0x16232, size: 0x8, addend: 0x0, symName: __ZNSt3__114__split_bufferIP15ServerStatementRNS_9allocatorIS2_EEED1Ev, symObjAddr: 0x3F14, symBinAddr: 0x10000785C, symSize: 0x2C }
  - { offsetInCU: 0x1625E, offset: 0x1625E, size: 0x8, addend: 0x0, symName: __ZNKSt3__16vectorIP15ServerStatementNS_9allocatorIS2_EEE8max_sizeEv, symObjAddr: 0x3F40, symBinAddr: 0x100007888, symSize: 0x74 }
  - { offsetInCU: 0x16286, offset: 0x16286, size: 0x8, addend: 0x0, symName: __ZNKSt3__16vectorIP15ServerStatementNS_9allocatorIS2_EEE20__throw_length_errorB7v160006Ev, symObjAddr: 0x3FB4, symBinAddr: 0x1000078FC, symSize: 0x1C }
  - { offsetInCU: 0x162AC, offset: 0x162AC, size: 0x8, addend: 0x0, symName: __ZNKSt3__16vectorIP15ServerStatementNS_9allocatorIS2_EEE8capacityB7v160006Ev, symObjAddr: 0x3FD0, symBinAddr: 0x100007918, symSize: 0x40 }
  - { offsetInCU: 0x162DC, offset: 0x162DC, size: 0x8, addend: 0x0, symName: __ZNSt3__116allocator_traitsINS_9allocatorIP15ServerStatementEEE8max_sizeB7v160006IS4_vEEmRKS4_, symObjAddr: 0x4068, symBinAddr: 0x1000079B0, symSize: 0x24 }
  - { offsetInCU: 0x1630A, offset: 0x1630A, size: 0x8, addend: 0x0, symName: __ZNKSt3__16vectorIP15ServerStatementNS_9allocatorIS2_EEE7__allocB7v160006Ev, symObjAddr: 0x408C, symBinAddr: 0x1000079D4, symSize: 0x28 }
  - { offsetInCU: 0x16330, offset: 0x16330, size: 0x8, addend: 0x0, symName: __ZNSt3__114numeric_limitsIlE3maxB7v160006Ev, symObjAddr: 0x40B4, symBinAddr: 0x1000079FC, symSize: 0x14 }
  - { offsetInCU: 0x1634E, offset: 0x1634E, size: 0x8, addend: 0x0, symName: __ZNKSt3__16__lessImmEclB7v160006ERKmS3_, symObjAddr: 0x411C, symBinAddr: 0x100007A64, symSize: 0x34 }
  - { offsetInCU: 0x16390, offset: 0x16390, size: 0x8, addend: 0x0, symName: __ZNKSt3__19allocatorIP15ServerStatementE8max_sizeB7v160006Ev, symObjAddr: 0x4150, symBinAddr: 0x100007A98, symSize: 0x14 }
  - { offsetInCU: 0x163B6, offset: 0x163B6, size: 0x8, addend: 0x0, symName: __ZNKSt3__117__compressed_pairIPP15ServerStatementNS_9allocatorIS2_EEE6secondB7v160006Ev, symObjAddr: 0x4164, symBinAddr: 0x100007AAC, symSize: 0x24 }
  - { offsetInCU: 0x163DC, offset: 0x163DC, size: 0x8, addend: 0x0, symName: __ZNKSt3__122__compressed_pair_elemINS_9allocatorIP15ServerStatementEELi1ELb1EE5__getB7v160006Ev, symObjAddr: 0x4188, symBinAddr: 0x100007AD0, symSize: 0x14 }
  - { offsetInCU: 0x16402, offset: 0x16402, size: 0x8, addend: 0x0, symName: __ZNSt3__123__libcpp_numeric_limitsIlLb1EE3maxB7v160006Ev, symObjAddr: 0x419C, symBinAddr: 0x100007AE4, symSize: 0x8 }
  - { offsetInCU: 0x16416, offset: 0x16416, size: 0x8, addend: 0x0, symName: __ZNSt12length_errorC1B7v160006EPKc, symObjAddr: 0x4208, symBinAddr: 0x100007B50, symSize: 0x34 }
  - { offsetInCU: 0x1644E, offset: 0x1644E, size: 0x8, addend: 0x0, symName: __ZNSt12length_errorC2B7v160006EPKc, symObjAddr: 0x423C, symBinAddr: 0x100007B84, symSize: 0x4C }
  - { offsetInCU: 0x16486, offset: 0x16486, size: 0x8, addend: 0x0, symName: __ZNKSt3__16vectorIP15ServerStatementNS_9allocatorIS2_EEE9__end_capB7v160006Ev, symObjAddr: 0x4288, symBinAddr: 0x100007BD0, symSize: 0x28 }
  - { offsetInCU: 0x164AC, offset: 0x164AC, size: 0x8, addend: 0x0, symName: __ZNKSt3__117__compressed_pairIPP15ServerStatementNS_9allocatorIS2_EEE5firstB7v160006Ev, symObjAddr: 0x42B0, symBinAddr: 0x100007BF8, symSize: 0x24 }
  - { offsetInCU: 0x164D2, offset: 0x164D2, size: 0x8, addend: 0x0, symName: __ZNKSt3__122__compressed_pair_elemIPP15ServerStatementLi0ELb0EE5__getB7v160006Ev, symObjAddr: 0x42D4, symBinAddr: 0x100007C1C, symSize: 0x14 }
  - { offsetInCU: 0x164F8, offset: 0x164F8, size: 0x8, addend: 0x0, symName: __ZNSt3__114__split_bufferIP15ServerStatementRNS_9allocatorIS2_EEEC2EmmS5_, symObjAddr: 0x433C, symBinAddr: 0x100007C84, symSize: 0xD4 }
  - { offsetInCU: 0x1656B, offset: 0x1656B, size: 0x8, addend: 0x0, symName: __ZNSt3__117__compressed_pairIPP15ServerStatementRNS_9allocatorIS2_EEEC1B7v160006IDnS6_EEOT_OT0_, symObjAddr: 0x4410, symBinAddr: 0x100007D58, symSize: 0x3C }
  - { offsetInCU: 0x165C3, offset: 0x165C3, size: 0x8, addend: 0x0, symName: __ZNSt3__114__split_bufferIP15ServerStatementRNS_9allocatorIS2_EEE7__allocB7v160006Ev, symObjAddr: 0x448C, symBinAddr: 0x100007DD4, symSize: 0x28 }
  - { offsetInCU: 0x165E9, offset: 0x165E9, size: 0x8, addend: 0x0, symName: __ZNSt3__114__split_bufferIP15ServerStatementRNS_9allocatorIS2_EEE9__end_capB7v160006Ev, symObjAddr: 0x44B4, symBinAddr: 0x100007DFC, symSize: 0x28 }
  - { offsetInCU: 0x1660F, offset: 0x1660F, size: 0x8, addend: 0x0, symName: __ZNSt3__117__compressed_pairIPP15ServerStatementRNS_9allocatorIS2_EEEC2B7v160006IDnS6_EEOT_OT0_, symObjAddr: 0x44DC, symBinAddr: 0x100007E24, symSize: 0x48 }
  - { offsetInCU: 0x16667, offset: 0x16667, size: 0x8, addend: 0x0, symName: __ZNSt3__122__compressed_pair_elemIRNS_9allocatorIP15ServerStatementEELi1ELb0EEC2B7v160006IS5_vEEOT_, symObjAddr: 0x4524, symBinAddr: 0x100007E6C, symSize: 0x20 }
  - { offsetInCU: 0x166A9, offset: 0x166A9, size: 0x8, addend: 0x0, symName: __ZNSt3__19allocatorIP15ServerStatementE8allocateB7v160006Em, symObjAddr: 0x4544, symBinAddr: 0x100007E8C, symSize: 0x84 }
  - { offsetInCU: 0x166DD, offset: 0x166DD, size: 0x8, addend: 0x0, symName: __ZNSt3__117__compressed_pairIPP15ServerStatementRNS_9allocatorIS2_EEE6secondB7v160006Ev, symObjAddr: 0x4648, symBinAddr: 0x100007F90, symSize: 0x28 }
  - { offsetInCU: 0x16703, offset: 0x16703, size: 0x8, addend: 0x0, symName: __ZNSt3__122__compressed_pair_elemIRNS_9allocatorIP15ServerStatementEELi1ELb0EE5__getB7v160006Ev, symObjAddr: 0x4670, symBinAddr: 0x100007FB8, symSize: 0x18 }
  - { offsetInCU: 0x16729, offset: 0x16729, size: 0x8, addend: 0x0, symName: __ZNSt3__117__compressed_pairIPP15ServerStatementRNS_9allocatorIS2_EEE5firstB7v160006Ev, symObjAddr: 0x4688, symBinAddr: 0x100007FD0, symSize: 0x24 }
  - { offsetInCU: 0x1674F, offset: 0x1674F, size: 0x8, addend: 0x0, symName: __ZNKSt3__16vectorIP15ServerStatementNS_9allocatorIS2_EEE17__annotate_deleteB7v160006Ev, symObjAddr: 0x46AC, symBinAddr: 0x100007FF4, symSize: 0xB8 }
  - { offsetInCU: 0x16775, offset: 0x16775, size: 0x8, addend: 0x0, symName: __ZNSt3__116reverse_iteratorIPP15ServerStatementEC1B7v160006ES3_, symObjAddr: 0x484C, symBinAddr: 0x100008194, symSize: 0x34 }
  - { offsetInCU: 0x167AD, offset: 0x167AD, size: 0x8, addend: 0x0, symName: __ZNKSt3__116reverse_iteratorIPP15ServerStatementE4baseB7v160006Ev, symObjAddr: 0x4880, symBinAddr: 0x1000081C8, symSize: 0x18 }
  - { offsetInCU: 0x167D3, offset: 0x167D3, size: 0x8, addend: 0x0, symName: __ZNKSt3__16vectorIP15ServerStatementNS_9allocatorIS2_EEE14__annotate_newB7v160006Em, symObjAddr: 0x48D4, symBinAddr: 0x10000821C, symSize: 0xAC }
  - { offsetInCU: 0x16808, offset: 0x16808, size: 0x8, addend: 0x0, symName: __ZNKSt3__16vectorIP15ServerStatementNS_9allocatorIS2_EEE31__annotate_contiguous_containerB7v160006EPKvS7_S7_S7_, symObjAddr: 0x4990, symBinAddr: 0x1000082D8, symSize: 0x20 }
  - { offsetInCU: 0x1685A, offset: 0x1685A, size: 0x8, addend: 0x0, symName: __ZNKSt3__16vectorIP15ServerStatementNS_9allocatorIS2_EEE4dataB7v160006Ev, symObjAddr: 0x49B0, symBinAddr: 0x1000082F8, symSize: 0x28 }
  - { offsetInCU: 0x16880, offset: 0x16880, size: 0x8, addend: 0x0, symName: __ZNKSt3__116reverse_iteratorIPP15ServerStatementEdeB7v160006Ev, symObjAddr: 0x4A70, symBinAddr: 0x1000083B8, symSize: 0x28 }
  - { offsetInCU: 0x168B4, offset: 0x168B4, size: 0x8, addend: 0x0, symName: __ZNSt3__116reverse_iteratorIPP15ServerStatementEppB7v160006Ev, symObjAddr: 0x4A98, symBinAddr: 0x1000083E0, symSize: 0x20 }
  - { offsetInCU: 0x168DF, offset: 0x168DF, size: 0x8, addend: 0x0, symName: __ZNSt3__119__to_address_helperINS_16reverse_iteratorIPP15ServerStatementEEvE6__callB7v160006ERKS5_, symObjAddr: 0x4B30, symBinAddr: 0x100008478, symSize: 0x4C }
  - { offsetInCU: 0x16902, offset: 0x16902, size: 0x8, addend: 0x0, symName: __ZNKSt3__116reverse_iteratorIPP15ServerStatementEptB7v160006Ev, symObjAddr: 0x4B7C, symBinAddr: 0x1000084C4, symSize: 0x24 }
  - { offsetInCU: 0x1694B, offset: 0x1694B, size: 0x8, addend: 0x0, symName: __ZNKSt3__111__move_loopINS_17_ClassicAlgPolicyEEclB7v160006INS_16reverse_iteratorIPP15ServerStatementEES8_S8_EENS_4pairIT_T1_EESA_T0_SB_, symObjAddr: 0x4E30, symBinAddr: 0x100008778, symSize: 0xA0 }
  - { offsetInCU: 0x169B6, offset: 0x169B6, size: 0x8, addend: 0x0, symName: __ZNSt3__18_IterOpsINS_17_ClassicAlgPolicyEE11__iter_moveB7v160006IRNS_16reverse_iteratorIPP15ServerStatementEEEENS_9enable_ifIXsr12is_referenceIDTdeclsr3stdE7declvalIRT_EEEEE5valueEDTclsr3stdE4movedeclsr3stdE7declvalISC_EEEEE4typeEOSB_, symObjAddr: 0x5030, symBinAddr: 0x100008978, symSize: 0x28 }
  - { offsetInCU: 0x169E2, offset: 0x169E2, size: 0x8, addend: 0x0, symName: __ZNSt3__18_IterOpsINS_17_ClassicAlgPolicyEE25__validate_iter_referenceB7v160006IRNS_16reverse_iteratorIPP15ServerStatementEEEEvv, symObjAddr: 0x5058, symBinAddr: 0x1000089A0, symSize: 0x4 }
  - { offsetInCU: 0x16A00, offset: 0x16A00, size: 0x8, addend: 0x0, symName: __ZNSt3__118__unwrap_iter_implINS_16reverse_iteratorIPP15ServerStatementEELb0EE8__unwrapB7v160006ES5_, symObjAddr: 0x505C, symBinAddr: 0x1000089A4, symSize: 0x24 }
  - { offsetInCU: 0x16A23, offset: 0x16A23, size: 0x8, addend: 0x0, symName: __ZNSt3__14pairINS_16reverse_iteratorIPP15ServerStatementEES5_EC1B7v160006ERKS5_S8_, symObjAddr: 0x5080, symBinAddr: 0x1000089C8, symSize: 0x3C }
  - { offsetInCU: 0x16A69, offset: 0x16A69, size: 0x8, addend: 0x0, symName: __ZNSt3__14pairINS_16reverse_iteratorIPP15ServerStatementEES5_EC2B7v160006ERKS5_S8_, symObjAddr: 0x50BC, symBinAddr: 0x100008A04, symSize: 0x34 }
  - { offsetInCU: 0x16AAF, offset: 0x16AAF, size: 0x8, addend: 0x0, symName: __ZNSt3__118__unwrap_iter_implINS_16reverse_iteratorIPP15ServerStatementEELb0EE8__rewrapB7v160006ES5_S5_, symObjAddr: 0x50F0, symBinAddr: 0x100008A38, symSize: 0x2C }
  - { offsetInCU: 0x16ADD, offset: 0x16ADD, size: 0x8, addend: 0x0, symName: __ZNSt3__116reverse_iteratorIPP15ServerStatementEC2B7v160006ES3_, symObjAddr: 0x511C, symBinAddr: 0x100008A64, symSize: 0x28 }
  - { offsetInCU: 0x16B15, offset: 0x16B15, size: 0x8, addend: 0x0, symName: __ZNSt3__114__split_bufferIP15ServerStatementRNS_9allocatorIS2_EEED2Ev, symObjAddr: 0x5144, symBinAddr: 0x100008A8C, symSize: 0x80 }
  - { offsetInCU: 0x16B41, offset: 0x16B41, size: 0x8, addend: 0x0, symName: __ZNSt3__114__split_bufferIP15ServerStatementRNS_9allocatorIS2_EEE5clearB7v160006Ev, symObjAddr: 0x51C4, symBinAddr: 0x100008B0C, symSize: 0x28 }
  - { offsetInCU: 0x16B67, offset: 0x16B67, size: 0x8, addend: 0x0, symName: __ZNSt3__116allocator_traitsINS_9allocatorIP15ServerStatementEEE10deallocateB7v160006ERS4_PS3_m, symObjAddr: 0x51EC, symBinAddr: 0x100008B34, symSize: 0x34 }
  - { offsetInCU: 0x16BA9, offset: 0x16BA9, size: 0x8, addend: 0x0, symName: __ZNKSt3__114__split_bufferIP15ServerStatementRNS_9allocatorIS2_EEE8capacityB7v160006Ev, symObjAddr: 0x5220, symBinAddr: 0x100008B68, symSize: 0x40 }
  - { offsetInCU: 0x16BCF, offset: 0x16BCF, size: 0x8, addend: 0x0, symName: __ZNSt3__114__split_bufferIP15ServerStatementRNS_9allocatorIS2_EEE17__destruct_at_endB7v160006EPS2_, symObjAddr: 0x5260, symBinAddr: 0x100008BA8, symSize: 0x2C }
  - { offsetInCU: 0x16C03, offset: 0x16C03, size: 0x8, addend: 0x0, symName: __ZNSt3__114__split_bufferIP15ServerStatementRNS_9allocatorIS2_EEE17__destruct_at_endB7v160006EPS2_NS_17integral_constantIbLb0EEE, symObjAddr: 0x528C, symBinAddr: 0x100008BD4, symSize: 0x94 }
  - { offsetInCU: 0x16C44, offset: 0x16C44, size: 0x8, addend: 0x0, symName: __ZNSt3__116allocator_traitsINS_9allocatorIP15ServerStatementEEE7destroyB7v160006IS3_vEEvRS4_PT_, symObjAddr: 0x5320, symBinAddr: 0x100008C68, symSize: 0x2C }
  - { offsetInCU: 0x16C81, offset: 0x16C81, size: 0x8, addend: 0x0, symName: __ZNSt3__19allocatorIP15ServerStatementE7destroyB7v160006EPS2_, symObjAddr: 0x534C, symBinAddr: 0x100008C94, symSize: 0x14 }
  - { offsetInCU: 0x16CB5, offset: 0x16CB5, size: 0x8, addend: 0x0, symName: __ZNSt3__19allocatorIP15ServerStatementE10deallocateB7v160006EPS2_m, symObjAddr: 0x5360, symBinAddr: 0x100008CA8, symSize: 0x70 }
  - { offsetInCU: 0x16CF7, offset: 0x16CF7, size: 0x8, addend: 0x0, symName: __ZNKSt3__114__split_bufferIP15ServerStatementRNS_9allocatorIS2_EEE9__end_capB7v160006Ev, symObjAddr: 0x53D0, symBinAddr: 0x100008D18, symSize: 0x28 }
  - { offsetInCU: 0x16D1D, offset: 0x16D1D, size: 0x8, addend: 0x0, symName: __ZNKSt3__117__compressed_pairIPP15ServerStatementRNS_9allocatorIS2_EEE5firstB7v160006Ev, symObjAddr: 0x53F8, symBinAddr: 0x100008D40, symSize: 0x24 }
  - { offsetInCU: 0x16D43, offset: 0x16D43, size: 0x8, addend: 0x0, symName: __ZNSt3__114basic_iostreamIcNS_11char_traitsIcEEEC2B7v160006EPNS_15basic_streambufIcS2_EE, symObjAddr: 0x541C, symBinAddr: 0x100008D64, symSize: 0xB4 }
  - { offsetInCU: 0x16D89, offset: 0x16D89, size: 0x8, addend: 0x0, symName: __ZNSt3__113basic_ostreamIcNS_11char_traitsIcEEEC2B7v160006Ev, symObjAddr: 0x54D0, symBinAddr: 0x100008E18, symSize: 0x34 }
  - { offsetInCU: 0x16DDE, offset: 0x16DDE, size: 0x8, addend: 0x0, symName: __ZNKSt3__113basic_ostreamIcNS_11char_traitsIcEEE6sentrycvbB7v160006Ev, symObjAddr: 0x56F8, symBinAddr: 0x100009040, symSize: 0x1C }
  - { offsetInCU: 0x16E04, offset: 0x16E04, size: 0x8, addend: 0x0, symName: __ZNSt3__119ostreambuf_iteratorIcNS_11char_traitsIcEEEC1B7v160006ERNS_13basic_ostreamIcS2_EE, symObjAddr: 0x595C, symBinAddr: 0x1000092A4, symSize: 0x34 }
  - { offsetInCU: 0x16E3C, offset: 0x16E3C, size: 0x8, addend: 0x0, symName: __ZNKSt3__18ios_base5flagsB7v160006Ev, symObjAddr: 0x5990, symBinAddr: 0x1000092D8, symSize: 0x18 }
  - { offsetInCU: 0x16E64, offset: 0x16E64, size: 0x8, addend: 0x0, symName: __ZNKSt3__19basic_iosIcNS_11char_traitsIcEEE4fillB7v160006Ev, symObjAddr: 0x59A8, symBinAddr: 0x1000092F0, symSize: 0x64 }
  - { offsetInCU: 0x16E8C, offset: 0x16E8C, size: 0x8, addend: 0x0, symName: __ZNKSt3__119ostreambuf_iteratorIcNS_11char_traitsIcEEE6failedB7v160006Ev, symObjAddr: 0x5A0C, symBinAddr: 0x100009354, symSize: 0x24 }
  - { offsetInCU: 0x16EB2, offset: 0x16EB2, size: 0x8, addend: 0x0, symName: __ZNKSt3__18ios_base5widthB7v160006Ev, symObjAddr: 0x5A30, symBinAddr: 0x100009378, symSize: 0x18 }
  - { offsetInCU: 0x16EDA, offset: 0x16EDA, size: 0x8, addend: 0x0, symName: __ZNSt3__115basic_streambufIcNS_11char_traitsIcEEE5sputnB7v160006EPKcl, symObjAddr: 0x5A48, symBinAddr: 0x100009390, symSize: 0x3C }
  - { offsetInCU: 0x16F1C, offset: 0x16F1C, size: 0x8, addend: 0x0, symName: __ZNSt3__112basic_stringIcNS_11char_traitsIcEENS_9allocatorIcEEEC1B7v160006Emc, symObjAddr: 0x5A84, symBinAddr: 0x1000093CC, symSize: 0x3C }
  - { offsetInCU: 0x16F64, offset: 0x16F64, size: 0x8, addend: 0x0, symName: __ZNSt3__18ios_base5widthB7v160006El, symObjAddr: 0x5AC0, symBinAddr: 0x100009408, symSize: 0x2C }
  - { offsetInCU: 0x16FAA, offset: 0x16FAA, size: 0x8, addend: 0x0, symName: __ZNSt3__112basic_stringIcNS_11char_traitsIcEENS_9allocatorIcEEEC2B7v160006Emc, symObjAddr: 0x5AEC, symBinAddr: 0x100009434, symSize: 0x54 }
  - { offsetInCU: 0x16FF2, offset: 0x16FF2, size: 0x8, addend: 0x0, symName: __ZNSt3__119ostreambuf_iteratorIcNS_11char_traitsIcEEEC2B7v160006ERNS_13basic_ostreamIcS2_EE, symObjAddr: 0x5B40, symBinAddr: 0x100009488, symSize: 0x68 }
  - { offsetInCU: 0x1702A, offset: 0x1702A, size: 0x8, addend: 0x0, symName: __ZNKSt3__19basic_iosIcNS_11char_traitsIcEEE5rdbufB7v160006Ev, symObjAddr: 0x5BA8, symBinAddr: 0x1000094F0, symSize: 0x24 }
  - { offsetInCU: 0x17052, offset: 0x17052, size: 0x8, addend: 0x0, symName: __ZNKSt3__18ios_base5rdbufB7v160006Ev, symObjAddr: 0x5BCC, symBinAddr: 0x100009514, symSize: 0x18 }
  - { offsetInCU: 0x17078, offset: 0x17078, size: 0x8, addend: 0x0, symName: __ZNSt3__111char_traitsIcE11eq_int_typeEii, symObjAddr: 0x5BE4, symBinAddr: 0x10000952C, symSize: 0x28 }
  - { offsetInCU: 0x170A9, offset: 0x170A9, size: 0x8, addend: 0x0, symName: __ZNKSt3__19basic_iosIcNS_11char_traitsIcEEE5widenB7v160006Ec, symObjAddr: 0x5C0C, symBinAddr: 0x100009554, symSize: 0x8C }
  - { offsetInCU: 0x17117, offset: 0x17117, size: 0x8, addend: 0x0, symName: __ZNKSt3__15ctypeIcE5widenB7v160006Ec, symObjAddr: 0x5CC4, symBinAddr: 0x10000960C, symSize: 0x38 }
  - { offsetInCU: 0x1714C, offset: 0x1714C, size: 0x8, addend: 0x0, symName: __ZNSt3__16vectorINS_12basic_stringIcNS_11char_traitsIcEENS_9allocatorIcEEEENS4_IS6_EEE9__end_capB7v160006Ev, symObjAddr: 0x5CFC, symBinAddr: 0x100009644, symSize: 0x28 }
  - { offsetInCU: 0x17177, offset: 0x17177, size: 0x8, addend: 0x0, symName: __ZNSt3__16vectorINS_12basic_stringIcNS_11char_traitsIcEENS_9allocatorIcEEEENS4_IS6_EEE22__construct_one_at_endB7v160006IJS6_EEEvDpOT_, symObjAddr: 0x5D24, symBinAddr: 0x10000966C, symSize: 0x98 }
  - { offsetInCU: 0x171C6, offset: 0x171C6, size: 0x8, addend: 0x0, symName: __ZNSt3__16vectorINS_12basic_stringIcNS_11char_traitsIcEENS_9allocatorIcEEEENS4_IS6_EEE21__push_back_slow_pathIS6_EEvOT_, symObjAddr: 0x5DBC, symBinAddr: 0x100009704, symSize: 0xE0 }
  - { offsetInCU: 0x17224, offset: 0x17224, size: 0x8, addend: 0x0, symName: __ZNSt3__117__compressed_pairIPNS_12basic_stringIcNS_11char_traitsIcEENS_9allocatorIcEEEENS4_IS6_EEE5firstB7v160006Ev, symObjAddr: 0x5E9C, symBinAddr: 0x1000097E4, symSize: 0x24 }
  - { offsetInCU: 0x1724A, offset: 0x1724A, size: 0x8, addend: 0x0, symName: __ZNSt3__122__compressed_pair_elemIPNS_12basic_stringIcNS_11char_traitsIcEENS_9allocatorIcEEEELi0ELb0EE5__getB7v160006Ev, symObjAddr: 0x5EC0, symBinAddr: 0x100009808, symSize: 0x14 }
  - { offsetInCU: 0x17289, offset: 0x17289, size: 0x8, addend: 0x0, symName: __ZNSt3__16vectorINS_12basic_stringIcNS_11char_traitsIcEENS_9allocatorIcEEEENS4_IS6_EEE21_ConstructTransactionC1B7v160006ERS8_m, symObjAddr: 0x5ED4, symBinAddr: 0x10000981C, symSize: 0x3C }
  - { offsetInCU: 0x172D1, offset: 0x172D1, size: 0x8, addend: 0x0, symName: __ZNSt3__116allocator_traitsINS_9allocatorINS_12basic_stringIcNS_11char_traitsIcEENS1_IcEEEEEEE9constructB7v160006IS6_JS6_EvEEvRS7_PT_DpOT0_, symObjAddr: 0x5F10, symBinAddr: 0x100009858, symSize: 0x34 }
  - { offsetInCU: 0x17328, offset: 0x17328, size: 0x8, addend: 0x0, symName: __ZNSt3__16vectorINS_12basic_stringIcNS_11char_traitsIcEENS_9allocatorIcEEEENS4_IS6_EEE21_ConstructTransactionD1B7v160006Ev, symObjAddr: 0x5F44, symBinAddr: 0x10000988C, symSize: 0x2C }
  - { offsetInCU: 0x17352, offset: 0x17352, size: 0x8, addend: 0x0, symName: __ZNSt3__16vectorINS_12basic_stringIcNS_11char_traitsIcEENS_9allocatorIcEEEENS4_IS6_EEE21_ConstructTransactionC2B7v160006ERS8_m, symObjAddr: 0x5F70, symBinAddr: 0x1000098B8, symSize: 0x4C }
  - { offsetInCU: 0x1739A, offset: 0x1739A, size: 0x8, addend: 0x0, symName: __ZNSt3__19allocatorINS_12basic_stringIcNS_11char_traitsIcEENS0_IcEEEEE9constructB7v160006IS5_JS5_EEEvPT_DpOT0_, symObjAddr: 0x5FBC, symBinAddr: 0x100009904, symSize: 0x30 }
  - { offsetInCU: 0x173F0, offset: 0x173F0, size: 0x8, addend: 0x0, symName: __ZNSt3__16vectorINS_12basic_stringIcNS_11char_traitsIcEENS_9allocatorIcEEEENS4_IS6_EEE21_ConstructTransactionD2B7v160006Ev, symObjAddr: 0x5FEC, symBinAddr: 0x100009934, symSize: 0x20 }
  - { offsetInCU: 0x1741A, offset: 0x1741A, size: 0x8, addend: 0x0, symName: __ZNKSt3__16vectorINS_12basic_stringIcNS_11char_traitsIcEENS_9allocatorIcEEEENS4_IS6_EEE11__recommendB7v160006Em, symObjAddr: 0x600C, symBinAddr: 0x100009954, symSize: 0xB4 }
  - { offsetInCU: 0x1746F, offset: 0x1746F, size: 0x8, addend: 0x0, symName: __ZNSt3__114__split_bufferINS_12basic_stringIcNS_11char_traitsIcEENS_9allocatorIcEEEERNS4_IS6_EEEC1EmmS8_, symObjAddr: 0x60C0, symBinAddr: 0x100009A08, symSize: 0x44 }
  - { offsetInCU: 0x174C5, offset: 0x174C5, size: 0x8, addend: 0x0, symName: __ZNSt3__114__split_bufferINS_12basic_stringIcNS_11char_traitsIcEENS_9allocatorIcEEEERNS4_IS6_EEED1Ev, symObjAddr: 0x621C, symBinAddr: 0x100009B64, symSize: 0x2C }
  - { offsetInCU: 0x174F1, offset: 0x174F1, size: 0x8, addend: 0x0, symName: __ZNKSt3__16vectorINS_12basic_stringIcNS_11char_traitsIcEENS_9allocatorIcEEEENS4_IS6_EEE8max_sizeEv, symObjAddr: 0x6248, symBinAddr: 0x100009B90, symSize: 0x74 }
  - { offsetInCU: 0x17519, offset: 0x17519, size: 0x8, addend: 0x0, symName: __ZNKSt3__16vectorINS_12basic_stringIcNS_11char_traitsIcEENS_9allocatorIcEEEENS4_IS6_EEE20__throw_length_errorB7v160006Ev, symObjAddr: 0x62BC, symBinAddr: 0x100009C04, symSize: 0x1C }
  - { offsetInCU: 0x17549, offset: 0x17549, size: 0x8, addend: 0x0, symName: __ZNSt3__116allocator_traitsINS_9allocatorINS_12basic_stringIcNS_11char_traitsIcEENS1_IcEEEEEEE8max_sizeB7v160006IS7_vEEmRKS7_, symObjAddr: 0x62D8, symBinAddr: 0x100009C20, symSize: 0x24 }
  - { offsetInCU: 0x17577, offset: 0x17577, size: 0x8, addend: 0x0, symName: __ZNKSt3__16vectorINS_12basic_stringIcNS_11char_traitsIcEENS_9allocatorIcEEEENS4_IS6_EEE7__allocB7v160006Ev, symObjAddr: 0x62FC, symBinAddr: 0x100009C44, symSize: 0x28 }
  - { offsetInCU: 0x1759D, offset: 0x1759D, size: 0x8, addend: 0x0, symName: __ZNKSt3__19allocatorINS_12basic_stringIcNS_11char_traitsIcEENS0_IcEEEEE8max_sizeB7v160006Ev, symObjAddr: 0x6324, symBinAddr: 0x100009C6C, symSize: 0x18 }
  - { offsetInCU: 0x175C3, offset: 0x175C3, size: 0x8, addend: 0x0, symName: __ZNKSt3__117__compressed_pairIPNS_12basic_stringIcNS_11char_traitsIcEENS_9allocatorIcEEEENS4_IS6_EEE6secondB7v160006Ev, symObjAddr: 0x633C, symBinAddr: 0x100009C84, symSize: 0x24 }
  - { offsetInCU: 0x175E9, offset: 0x175E9, size: 0x8, addend: 0x0, symName: __ZNKSt3__122__compressed_pair_elemINS_9allocatorINS_12basic_stringIcNS_11char_traitsIcEENS1_IcEEEEEELi1ELb1EE5__getB7v160006Ev, symObjAddr: 0x6360, symBinAddr: 0x100009CA8, symSize: 0x14 }
  - { offsetInCU: 0x1760F, offset: 0x1760F, size: 0x8, addend: 0x0, symName: __ZNSt3__114__split_bufferINS_12basic_stringIcNS_11char_traitsIcEENS_9allocatorIcEEEERNS4_IS6_EEEC2EmmS8_, symObjAddr: 0x6374, symBinAddr: 0x100009CBC, symSize: 0xE0 }
  - { offsetInCU: 0x17682, offset: 0x17682, size: 0x8, addend: 0x0, symName: __ZNSt3__117__compressed_pairIPNS_12basic_stringIcNS_11char_traitsIcEENS_9allocatorIcEEEERNS4_IS6_EEEC1B7v160006IDnS9_EEOT_OT0_, symObjAddr: 0x6454, symBinAddr: 0x100009D9C, symSize: 0x3C }
  - { offsetInCU: 0x176DA, offset: 0x176DA, size: 0x8, addend: 0x0, symName: __ZNSt3__114__split_bufferINS_12basic_stringIcNS_11char_traitsIcEENS_9allocatorIcEEEERNS4_IS6_EEE7__allocB7v160006Ev, symObjAddr: 0x64D0, symBinAddr: 0x100009E18, symSize: 0x28 }
  - { offsetInCU: 0x17700, offset: 0x17700, size: 0x8, addend: 0x0, symName: __ZNSt3__114__split_bufferINS_12basic_stringIcNS_11char_traitsIcEENS_9allocatorIcEEEERNS4_IS6_EEE9__end_capB7v160006Ev, symObjAddr: 0x64F8, symBinAddr: 0x100009E40, symSize: 0x28 }
  - { offsetInCU: 0x17726, offset: 0x17726, size: 0x8, addend: 0x0, symName: __ZNSt3__117__compressed_pairIPNS_12basic_stringIcNS_11char_traitsIcEENS_9allocatorIcEEEERNS4_IS6_EEEC2B7v160006IDnS9_EEOT_OT0_, symObjAddr: 0x6520, symBinAddr: 0x100009E68, symSize: 0x48 }
  - { offsetInCU: 0x1777E, offset: 0x1777E, size: 0x8, addend: 0x0, symName: __ZNSt3__122__compressed_pair_elemIRNS_9allocatorINS_12basic_stringIcNS_11char_traitsIcEENS1_IcEEEEEELi1ELb0EEC2B7v160006IS8_vEEOT_, symObjAddr: 0x6568, symBinAddr: 0x100009EB0, symSize: 0x20 }
  - { offsetInCU: 0x177C0, offset: 0x177C0, size: 0x8, addend: 0x0, symName: __ZNSt3__19allocatorINS_12basic_stringIcNS_11char_traitsIcEENS0_IcEEEEE8allocateB7v160006Em, symObjAddr: 0x6588, symBinAddr: 0x100009ED0, symSize: 0x8C }
  - { offsetInCU: 0x177F4, offset: 0x177F4, size: 0x8, addend: 0x0, symName: __ZNSt3__117__compressed_pairIPNS_12basic_stringIcNS_11char_traitsIcEENS_9allocatorIcEEEERNS4_IS6_EEE6secondB7v160006Ev, symObjAddr: 0x6614, symBinAddr: 0x100009F5C, symSize: 0x28 }
  - { offsetInCU: 0x1781A, offset: 0x1781A, size: 0x8, addend: 0x0, symName: __ZNSt3__122__compressed_pair_elemIRNS_9allocatorINS_12basic_stringIcNS_11char_traitsIcEENS1_IcEEEEEELi1ELb0EE5__getB7v160006Ev, symObjAddr: 0x663C, symBinAddr: 0x100009F84, symSize: 0x18 }
  - { offsetInCU: 0x17840, offset: 0x17840, size: 0x8, addend: 0x0, symName: __ZNSt3__117__compressed_pairIPNS_12basic_stringIcNS_11char_traitsIcEENS_9allocatorIcEEEERNS4_IS6_EEE5firstB7v160006Ev, symObjAddr: 0x6654, symBinAddr: 0x100009F9C, symSize: 0x24 }
  - { offsetInCU: 0x17866, offset: 0x17866, size: 0x8, addend: 0x0, symName: __ZNSt3__116reverse_iteratorIPNS_12basic_stringIcNS_11char_traitsIcEENS_9allocatorIcEEEEEC1B7v160006ES7_, symObjAddr: 0x67AC, symBinAddr: 0x10000A0F4, symSize: 0x34 }
  - { offsetInCU: 0x1789E, offset: 0x1789E, size: 0x8, addend: 0x0, symName: __ZNKSt3__116reverse_iteratorIPNS_12basic_stringIcNS_11char_traitsIcEENS_9allocatorIcEEEEE4baseB7v160006Ev, symObjAddr: 0x67E0, symBinAddr: 0x10000A128, symSize: 0x18 }
  - { offsetInCU: 0x178C4, offset: 0x178C4, size: 0x8, addend: 0x0, symName: __ZNKSt3__16vectorINS_12basic_stringIcNS_11char_traitsIcEENS_9allocatorIcEEEENS4_IS6_EEE14__annotate_newB7v160006Em, symObjAddr: 0x6834, symBinAddr: 0x10000A17C, symSize: 0xC8 }
  - { offsetInCU: 0x178F9, offset: 0x178F9, size: 0x8, addend: 0x0, symName: __ZNSt3__129_AllocatorDestroyRangeReverseINS_9allocatorINS_12basic_stringIcNS_11char_traitsIcEENS1_IcEEEEEENS_16reverse_iteratorIPS6_EEEC1B7v160006ERS7_RSA_SD_, symObjAddr: 0x6958, symBinAddr: 0x10000A2A0, symSize: 0x44 }
  - { offsetInCU: 0x17950, offset: 0x17950, size: 0x8, addend: 0x0, symName: __ZNSt3__116allocator_traitsINS_9allocatorINS_12basic_stringIcNS_11char_traitsIcEENS1_IcEEEEEEE9constructB7v160006IS6_JRKS6_EvEEvRS7_PT_DpOT0_, symObjAddr: 0x69E4, symBinAddr: 0x10000A32C, symSize: 0x34 }
  - { offsetInCU: 0x179A7, offset: 0x179A7, size: 0x8, addend: 0x0, symName: __ZNKSt3__116reverse_iteratorIPNS_12basic_stringIcNS_11char_traitsIcEENS_9allocatorIcEEEEEdeB7v160006Ev, symObjAddr: 0x6A3C, symBinAddr: 0x10000A384, symSize: 0x28 }
  - { offsetInCU: 0x179DB, offset: 0x179DB, size: 0x8, addend: 0x0, symName: __ZNSt3__116reverse_iteratorIPNS_12basic_stringIcNS_11char_traitsIcEENS_9allocatorIcEEEEEppB7v160006Ev, symObjAddr: 0x6A64, symBinAddr: 0x10000A3AC, symSize: 0x20 }
  - { offsetInCU: 0x17A01, offset: 0x17A01, size: 0x8, addend: 0x0, symName: __ZNSt3__128__exception_guard_exceptionsINS_29_AllocatorDestroyRangeReverseINS_9allocatorINS_12basic_stringIcNS_11char_traitsIcEENS2_IcEEEEEENS_16reverse_iteratorIPS7_EEEEE10__completeB7v160006Ev, symObjAddr: 0x6A84, symBinAddr: 0x10000A3CC, symSize: 0x1C }
  - { offsetInCU: 0x17A27, offset: 0x17A27, size: 0x8, addend: 0x0, symName: __ZNSt3__128__exception_guard_exceptionsINS_29_AllocatorDestroyRangeReverseINS_9allocatorINS_12basic_stringIcNS_11char_traitsIcEENS2_IcEEEEEENS_16reverse_iteratorIPS7_EEEEED1B7v160006Ev, symObjAddr: 0x6AA0, symBinAddr: 0x10000A3E8, symSize: 0x2C }
  - { offsetInCU: 0x17A51, offset: 0x17A51, size: 0x8, addend: 0x0, symName: __ZNSt3__128__exception_guard_exceptionsINS_29_AllocatorDestroyRangeReverseINS_9allocatorINS_12basic_stringIcNS_11char_traitsIcEENS2_IcEEEEEENS_16reverse_iteratorIPS7_EEEEEC1B7v160006ESC_, symObjAddr: 0x6ACC, symBinAddr: 0x10000A414, symSize: 0x34 }
  - { offsetInCU: 0x17A8A, offset: 0x17A8A, size: 0x8, addend: 0x0, symName: __ZNSt3__128__exception_guard_exceptionsINS_29_AllocatorDestroyRangeReverseINS_9allocatorINS_12basic_stringIcNS_11char_traitsIcEENS2_IcEEEEEENS_16reverse_iteratorIPS7_EEEEEC2B7v160006ESC_, symObjAddr: 0x6B00, symBinAddr: 0x10000A448, symSize: 0x30 }
  - { offsetInCU: 0x17AC3, offset: 0x17AC3, size: 0x8, addend: 0x0, symName: __ZNSt3__129_AllocatorDestroyRangeReverseINS_9allocatorINS_12basic_stringIcNS_11char_traitsIcEENS1_IcEEEEEENS_16reverse_iteratorIPS6_EEEC2B7v160006ERS7_RSA_SD_, symObjAddr: 0x6B30, symBinAddr: 0x10000A478, symSize: 0x38 }
  - { offsetInCU: 0x17B1A, offset: 0x17B1A, size: 0x8, addend: 0x0, symName: __ZNSt3__19allocatorINS_12basic_stringIcNS_11char_traitsIcEENS0_IcEEEEE9constructB7v160006IS5_JRKS5_EEEvPT_DpOT0_, symObjAddr: 0x6B68, symBinAddr: 0x10000A4B0, symSize: 0x30 }
  - { offsetInCU: 0x17B75, offset: 0x17B75, size: 0x8, addend: 0x0, symName: __ZNSt3__119__to_address_helperINS_16reverse_iteratorIPNS_12basic_stringIcNS_11char_traitsIcEENS_9allocatorIcEEEEEEvE6__callB7v160006ERKS9_, symObjAddr: 0x6B98, symBinAddr: 0x10000A4E0, symSize: 0x4C }
  - { offsetInCU: 0x17B98, offset: 0x17B98, size: 0x8, addend: 0x0, symName: __ZNKSt3__116reverse_iteratorIPNS_12basic_stringIcNS_11char_traitsIcEENS_9allocatorIcEEEEEptB7v160006Ev, symObjAddr: 0x6BE4, symBinAddr: 0x10000A52C, symSize: 0x24 }
  - { offsetInCU: 0x17BBE, offset: 0x17BBE, size: 0x8, addend: 0x0, symName: __ZNSt3__128__exception_guard_exceptionsINS_29_AllocatorDestroyRangeReverseINS_9allocatorINS_12basic_stringIcNS_11char_traitsIcEENS2_IcEEEEEENS_16reverse_iteratorIPS7_EEEEED2B7v160006Ev, symObjAddr: 0x6C08, symBinAddr: 0x10000A550, symSize: 0x48 }
  - { offsetInCU: 0x17BE8, offset: 0x17BE8, size: 0x8, addend: 0x0, symName: __ZNKSt3__129_AllocatorDestroyRangeReverseINS_9allocatorINS_12basic_stringIcNS_11char_traitsIcEENS1_IcEEEEEENS_16reverse_iteratorIPS6_EEEclB7v160006Ev, symObjAddr: 0x6C50, symBinAddr: 0x10000A598, symSize: 0xB4 }
  - { offsetInCU: 0x17C0F, offset: 0x17C0F, size: 0x8, addend: 0x0, symName: __ZNSt3__116reverse_iteratorINS0_IPNS_12basic_stringIcNS_11char_traitsIcEENS_9allocatorIcEEEEEEEC1B7v160006ES8_, symObjAddr: 0x6D74, symBinAddr: 0x10000A6BC, symSize: 0x3C }
  - { offsetInCU: 0x17C47, offset: 0x17C47, size: 0x8, addend: 0x0, symName: __ZNSt3__116reverse_iteratorINS0_IPNS_12basic_stringIcNS_11char_traitsIcEENS_9allocatorIcEEEEEEEppB7v160006Ev, symObjAddr: 0x6E34, symBinAddr: 0x10000A77C, symSize: 0x30 }
  - { offsetInCU: 0x17C6D, offset: 0x17C6D, size: 0x8, addend: 0x0, symName: __ZNKSt3__116reverse_iteratorINS0_IPNS_12basic_stringIcNS_11char_traitsIcEENS_9allocatorIcEEEEEEE4baseB7v160006Ev, symObjAddr: 0x6E64, symBinAddr: 0x10000A7AC, symSize: 0x24 }
  - { offsetInCU: 0x17C98, offset: 0x17C98, size: 0x8, addend: 0x0, symName: __ZNSt3__119__to_address_helperINS_16reverse_iteratorINS1_IPNS_12basic_stringIcNS_11char_traitsIcEENS_9allocatorIcEEEEEEEEvE6__callB7v160006ERKSA_, symObjAddr: 0x6E88, symBinAddr: 0x10000A7D0, symSize: 0x4C }
  - { offsetInCU: 0x17CBB, offset: 0x17CBB, size: 0x8, addend: 0x0, symName: __ZNKSt3__116reverse_iteratorINS0_IPNS_12basic_stringIcNS_11char_traitsIcEENS_9allocatorIcEEEEEEEptB7v160006Ev, symObjAddr: 0x6ED4, symBinAddr: 0x10000A81C, symSize: 0x24 }
  - { offsetInCU: 0x17CE1, offset: 0x17CE1, size: 0x8, addend: 0x0, symName: __ZNKSt3__116reverse_iteratorINS0_IPNS_12basic_stringIcNS_11char_traitsIcEENS_9allocatorIcEEEEEEEdeB7v160006Ev, symObjAddr: 0x6EF8, symBinAddr: 0x10000A840, symSize: 0x34 }
  - { offsetInCU: 0x17D15, offset: 0x17D15, size: 0x8, addend: 0x0, symName: __ZNSt3__116reverse_iteratorIPNS_12basic_stringIcNS_11char_traitsIcEENS_9allocatorIcEEEEEmmB7v160006Ev, symObjAddr: 0x6F2C, symBinAddr: 0x10000A874, symSize: 0x20 }
  - { offsetInCU: 0x17D3B, offset: 0x17D3B, size: 0x8, addend: 0x0, symName: __ZNSt3__116reverse_iteratorINS0_IPNS_12basic_stringIcNS_11char_traitsIcEENS_9allocatorIcEEEEEEEC2B7v160006ES8_, symObjAddr: 0x6F4C, symBinAddr: 0x10000A894, symSize: 0x2C }
  - { offsetInCU: 0x17D73, offset: 0x17D73, size: 0x8, addend: 0x0, symName: __ZNSt3__116reverse_iteratorIPNS_12basic_stringIcNS_11char_traitsIcEENS_9allocatorIcEEEEEC2B7v160006ES7_, symObjAddr: 0x6F78, symBinAddr: 0x10000A8C0, symSize: 0x28 }
  - { offsetInCU: 0x17DAB, offset: 0x17DAB, size: 0x8, addend: 0x0, symName: __ZNSt3__114__split_bufferINS_12basic_stringIcNS_11char_traitsIcEENS_9allocatorIcEEEERNS4_IS6_EEED2Ev, symObjAddr: 0x6FA0, symBinAddr: 0x10000A8E8, symSize: 0x80 }
  - { offsetInCU: 0x17DD7, offset: 0x17DD7, size: 0x8, addend: 0x0, symName: __ZNSt3__114__split_bufferINS_12basic_stringIcNS_11char_traitsIcEENS_9allocatorIcEEEERNS4_IS6_EEE5clearB7v160006Ev, symObjAddr: 0x7020, symBinAddr: 0x10000A968, symSize: 0x28 }
  - { offsetInCU: 0x17DFD, offset: 0x17DFD, size: 0x8, addend: 0x0, symName: __ZNKSt3__114__split_bufferINS_12basic_stringIcNS_11char_traitsIcEENS_9allocatorIcEEEERNS4_IS6_EEE8capacityB7v160006Ev, symObjAddr: 0x7048, symBinAddr: 0x10000A990, symSize: 0x40 }
  - { offsetInCU: 0x17E23, offset: 0x17E23, size: 0x8, addend: 0x0, symName: __ZNSt3__114__split_bufferINS_12basic_stringIcNS_11char_traitsIcEENS_9allocatorIcEEEERNS4_IS6_EEE17__destruct_at_endB7v160006EPS6_, symObjAddr: 0x7088, symBinAddr: 0x10000A9D0, symSize: 0x2C }
  - { offsetInCU: 0x17E57, offset: 0x17E57, size: 0x8, addend: 0x0, symName: __ZNSt3__114__split_bufferINS_12basic_stringIcNS_11char_traitsIcEENS_9allocatorIcEEEERNS4_IS6_EEE17__destruct_at_endB7v160006EPS6_NS_17integral_constantIbLb0EEE, symObjAddr: 0x70B4, symBinAddr: 0x10000A9FC, symSize: 0x94 }
  - { offsetInCU: 0x17E98, offset: 0x17E98, size: 0x8, addend: 0x0, symName: __ZNKSt3__114__split_bufferINS_12basic_stringIcNS_11char_traitsIcEENS_9allocatorIcEEEERNS4_IS6_EEE9__end_capB7v160006Ev, symObjAddr: 0x7148, symBinAddr: 0x10000AA90, symSize: 0x28 }
  - { offsetInCU: 0x17EBE, offset: 0x17EBE, size: 0x8, addend: 0x0, symName: __ZNKSt3__117__compressed_pairIPNS_12basic_stringIcNS_11char_traitsIcEENS_9allocatorIcEEEERNS4_IS6_EEE5firstB7v160006Ev, symObjAddr: 0x7170, symBinAddr: 0x10000AAB8, symSize: 0x24 }
  - { offsetInCU: 0x17EE4, offset: 0x17EE4, size: 0x8, addend: 0x0, symName: __ZNSt3__112basic_stringIcNS_11char_traitsIcEENS_9allocatorIcEEEC2B7v160006Ev, symObjAddr: 0x7194, symBinAddr: 0x10000AADC, symSize: 0x44 }
  - { offsetInCU: 0x17F0E, offset: 0x17F0E, size: 0x8, addend: 0x0, symName: __ZNSt3__112basic_stringIcNS_11char_traitsIcEENS_9allocatorIcEEE14__default_initB7v160006Ev, symObjAddr: 0x71D8, symBinAddr: 0x10000AB20, symSize: 0xB0 }
  - { offsetInCU: 0x17F60, offset: 0x17F60, size: 0x8, addend: 0x0, symName: __ZNSt3__117__compressed_pairINS_12basic_stringIcNS_11char_traitsIcEENS_9allocatorIcEEE5__repES5_E5firstB7v160006Ev, symObjAddr: 0x7288, symBinAddr: 0x10000ABD0, symSize: 0x24 }
  - { offsetInCU: 0x17F86, offset: 0x17F86, size: 0x8, addend: 0x0, symName: __ZNSt3__112basic_stringIcNS_11char_traitsIcEENS_9allocatorIcEEE11__recommendB7v160006Em, symObjAddr: 0x72AC, symBinAddr: 0x10000ABF4, symSize: 0x9C }
  - { offsetInCU: 0x17FB9, offset: 0x17FB9, size: 0x8, addend: 0x0, symName: __ZNSt3__116allocator_traitsINS_9allocatorIcEEE8allocateB7v160006ERS2_m, symObjAddr: 0x7348, symBinAddr: 0x10000AC90, symSize: 0x2C }
  - { offsetInCU: 0x17FEC, offset: 0x17FEC, size: 0x8, addend: 0x0, symName: __ZNSt3__112basic_stringIcNS_11char_traitsIcEENS_9allocatorIcEEE7__allocB7v160006Ev, symObjAddr: 0x7374, symBinAddr: 0x10000ACBC, symSize: 0x24 }
  - { offsetInCU: 0x18012, offset: 0x18012, size: 0x8, addend: 0x0, symName: __ZNSt3__112basic_stringIcNS_11char_traitsIcEENS_9allocatorIcEEE16__begin_lifetimeB7v160006EPcm, symObjAddr: 0x7398, symBinAddr: 0x10000ACE0, symSize: 0x14 }
  - { offsetInCU: 0x18045, offset: 0x18045, size: 0x8, addend: 0x0, symName: __ZNSt3__112basic_stringIcNS_11char_traitsIcEENS_9allocatorIcEEE18__set_long_pointerB7v160006EPc, symObjAddr: 0x73AC, symBinAddr: 0x10000ACF4, symSize: 0x38 }
  - { offsetInCU: 0x1807A, offset: 0x1807A, size: 0x8, addend: 0x0, symName: __ZNSt3__112basic_stringIcNS_11char_traitsIcEENS_9allocatorIcEEE14__set_long_capB7v160006Em, symObjAddr: 0x73E4, symBinAddr: 0x10000AD2C, symSize: 0x70 }
  - { offsetInCU: 0x180AF, offset: 0x180AF, size: 0x8, addend: 0x0, symName: __ZNSt3__112basic_stringIcNS_11char_traitsIcEENS_9allocatorIcEEE15__set_long_sizeB7v160006Em, symObjAddr: 0x7454, symBinAddr: 0x10000AD9C, symSize: 0x38 }
  - { offsetInCU: 0x180E4, offset: 0x180E4, size: 0x8, addend: 0x0, symName: __ZNSt3__122__compressed_pair_elemINS_12basic_stringIcNS_11char_traitsIcEENS_9allocatorIcEEE5__repELi0ELb0EE5__getB7v160006Ev, symObjAddr: 0x748C, symBinAddr: 0x10000ADD4, symSize: 0x14 }
  - { offsetInCU: 0x1810A, offset: 0x1810A, size: 0x8, addend: 0x0, symName: __ZNSt3__112basic_stringIcNS_11char_traitsIcEENS_9allocatorIcEEE10__align_itB7v160006ILm16EEEmm, symObjAddr: 0x74A0, symBinAddr: 0x10000ADE8, symSize: 0x1C }
  - { offsetInCU: 0x18138, offset: 0x18138, size: 0x8, addend: 0x0, symName: __ZNSt3__19allocatorIcE8allocateB7v160006Em, symObjAddr: 0x74BC, symBinAddr: 0x10000AE04, symSize: 0x84 }
  - { offsetInCU: 0x18176, offset: 0x18176, size: 0x8, addend: 0x0, symName: __ZNSt3__116allocator_traitsINS_9allocatorIcEEE8max_sizeB7v160006IS2_vEEmRKS2_, symObjAddr: 0x7540, symBinAddr: 0x10000AE88, symSize: 0x24 }
  - { offsetInCU: 0x181A4, offset: 0x181A4, size: 0x8, addend: 0x0, symName: __ZNKSt3__19allocatorIcE8max_sizeB7v160006Ev, symObjAddr: 0x7564, symBinAddr: 0x10000AEAC, symSize: 0x14 }
  - { offsetInCU: 0x181CA, offset: 0x181CA, size: 0x8, addend: 0x0, symName: __ZNSt3__117__compressed_pairINS_12basic_stringIcNS_11char_traitsIcEENS_9allocatorIcEEE5__repES5_E6secondB7v160006Ev, symObjAddr: 0x7578, symBinAddr: 0x10000AEC0, symSize: 0x24 }
  - { offsetInCU: 0x181F0, offset: 0x181F0, size: 0x8, addend: 0x0, symName: __ZNSt3__122__compressed_pair_elemINS_9allocatorIcEELi1ELb1EE5__getB7v160006Ev, symObjAddr: 0x759C, symBinAddr: 0x10000AEE4, symSize: 0x14 }
  - { offsetInCU: 0x18216, offset: 0x18216, size: 0x8, addend: 0x0, symName: __ZNSt3__16__treeINS_12__value_typeINS_12basic_stringIcNS_11char_traitsIcEENS_9allocatorIcEEEES7_EENS_19__map_value_compareIS7_S8_NS_4lessIS7_EELb1EEENS5_IS8_EEE12__find_equalIS7_EERPNS_16__tree_node_baseIPvEERPNS_15__tree_end_nodeISJ_EERKT_, symObjAddr: 0x75B0, symBinAddr: 0x10000AEF8, symSize: 0x184 }
  - { offsetInCU: 0x18283, offset: 0x18283, size: 0x8, addend: 0x0, symName: __ZNSt3__13mapINS_12basic_stringIcNS_11char_traitsIcEENS_9allocatorIcEEEES6_NS_4lessIS6_EENS4_INS_4pairIKS6_S6_EEEEE25__construct_node_with_keyERSA_, symObjAddr: 0x7734, symBinAddr: 0x10000B07C, symSize: 0x154 }
  - { offsetInCU: 0x182D9, offset: 0x182D9, size: 0x8, addend: 0x0, symName: __ZNSt3__16__treeINS_12__value_typeINS_12basic_stringIcNS_11char_traitsIcEENS_9allocatorIcEEEES7_EENS_19__map_value_compareIS7_S8_NS_4lessIS7_EELb1EEENS5_IS8_EEE16__insert_node_atEPNS_15__tree_end_nodeIPNS_16__tree_node_baseIPvEEEERSJ_SJ_, symObjAddr: 0x7888, symBinAddr: 0x10000B1D0, symSize: 0xCC }
  - { offsetInCU: 0x1832E, offset: 0x1832E, size: 0x8, addend: 0x0, symName: __ZNKSt3__110unique_ptrINS_11__tree_nodeINS_12__value_typeINS_12basic_stringIcNS_11char_traitsIcEENS_9allocatorIcEEEES8_EEPvEENS_21__map_node_destructorINS6_ISB_EEEEE3getB7v160006Ev, symObjAddr: 0x7954, symBinAddr: 0x10000B29C, symSize: 0x28 }
  - { offsetInCU: 0x18354, offset: 0x18354, size: 0x8, addend: 0x0, symName: __ZNSt3__110unique_ptrINS_11__tree_nodeINS_12__value_typeINS_12basic_stringIcNS_11char_traitsIcEENS_9allocatorIcEEEES8_EEPvEENS_21__map_node_destructorINS6_ISB_EEEEE7releaseB7v160006Ev, symObjAddr: 0x797C, symBinAddr: 0x10000B2C4, symSize: 0x44 }
  - { offsetInCU: 0x18389, offset: 0x18389, size: 0x8, addend: 0x0, symName: __ZNSt3__110unique_ptrINS_11__tree_nodeINS_12__value_typeINS_12basic_stringIcNS_11char_traitsIcEENS_9allocatorIcEEEES8_EEPvEENS_21__map_node_destructorINS6_ISB_EEEEED1B7v160006Ev, symObjAddr: 0x79C0, symBinAddr: 0x10000B308, symSize: 0x2C }
  - { offsetInCU: 0x183B3, offset: 0x183B3, size: 0x8, addend: 0x0, symName: __ZNSt3__112__value_typeINS_12basic_stringIcNS_11char_traitsIcEENS_9allocatorIcEEEES6_E11__get_valueB7v160006Ev, symObjAddr: 0x79EC, symBinAddr: 0x10000B334, symSize: 0x14 }
  - { offsetInCU: 0x183D9, offset: 0x183D9, size: 0x8, addend: 0x0, symName: __ZNKSt3__16__treeINS_12__value_typeINS_12basic_stringIcNS_11char_traitsIcEENS_9allocatorIcEEEES7_EENS_19__map_value_compareIS7_S8_NS_4lessIS7_EELb1EEENS5_IS8_EEE6__rootB7v160006Ev, symObjAddr: 0x7A00, symBinAddr: 0x10000B348, symSize: 0x28 }
  - { offsetInCU: 0x183FF, offset: 0x183FF, size: 0x8, addend: 0x0, symName: __ZNKSt3__16__treeINS_12__value_typeINS_12basic_stringIcNS_11char_traitsIcEENS_9allocatorIcEEEES7_EENS_19__map_value_compareIS7_S8_NS_4lessIS7_EELb1EEENS5_IS8_EEE10__root_ptrEv, symObjAddr: 0x7A28, symBinAddr: 0x10000B370, symSize: 0x24 }
  - { offsetInCU: 0x18425, offset: 0x18425, size: 0x8, addend: 0x0, symName: __ZNSt3__16__treeINS_12__value_typeINS_12basic_stringIcNS_11char_traitsIcEENS_9allocatorIcEEEES7_EENS_19__map_value_compareIS7_S8_NS_4lessIS7_EELb1EEENS5_IS8_EEE10value_compB7v160006Ev, symObjAddr: 0x7A4C, symBinAddr: 0x10000B394, symSize: 0x28 }
  - { offsetInCU: 0x1844B, offset: 0x1844B, size: 0x8, addend: 0x0, symName: __ZNKSt3__119__map_value_compareINS_12basic_stringIcNS_11char_traitsIcEENS_9allocatorIcEEEENS_12__value_typeIS6_S6_EENS_4lessIS6_EELb1EEclB7v160006ERKS6_RKS8_, symObjAddr: 0x7A74, symBinAddr: 0x10000B3BC, symSize: 0x50 }
  - { offsetInCU: 0x1848F, offset: 0x1848F, size: 0x8, addend: 0x0, symName: __ZNKSt3__119__map_value_compareINS_12basic_stringIcNS_11char_traitsIcEENS_9allocatorIcEEEENS_12__value_typeIS6_S6_EENS_4lessIS6_EELb1EEclB7v160006ERKS8_RKS6_, symObjAddr: 0x7AC4, symBinAddr: 0x10000B40C, symSize: 0x48 }
  - { offsetInCU: 0x184D3, offset: 0x184D3, size: 0x8, addend: 0x0, symName: __ZNSt3__16__treeINS_12__value_typeINS_12basic_stringIcNS_11char_traitsIcEENS_9allocatorIcEEEES7_EENS_19__map_value_compareIS7_S8_NS_4lessIS7_EELb1EEENS5_IS8_EEE10__end_nodeB7v160006Ev, symObjAddr: 0x7B0C, symBinAddr: 0x10000B454, symSize: 0x2C }
  - { offsetInCU: 0x184F9, offset: 0x184F9, size: 0x8, addend: 0x0, symName: __ZNKSt3__16__treeINS_12__value_typeINS_12basic_stringIcNS_11char_traitsIcEENS_9allocatorIcEEEES7_EENS_19__map_value_compareIS7_S8_NS_4lessIS7_EELb1EEENS5_IS8_EEE10__end_nodeB7v160006Ev, symObjAddr: 0x7B38, symBinAddr: 0x10000B480, symSize: 0x2C }
  - { offsetInCU: 0x1851F, offset: 0x1851F, size: 0x8, addend: 0x0, symName: __ZNSt3__114pointer_traitsIPNS_15__tree_end_nodeIPNS_16__tree_node_baseIPvEEEEE10pointer_toB7v160006ERS6_, symObjAddr: 0x7B64, symBinAddr: 0x10000B4AC, symSize: 0x14 }
  - { offsetInCU: 0x18542, offset: 0x18542, size: 0x8, addend: 0x0, symName: __ZNKSt3__117__compressed_pairINS_15__tree_end_nodeIPNS_16__tree_node_baseIPvEEEENS_9allocatorINS_11__tree_nodeINS_12__value_typeINS_12basic_stringIcNS_11char_traitsIcEENS7_IcEEEESE_EES3_EEEEE5firstB7v160006Ev, symObjAddr: 0x7B78, symBinAddr: 0x10000B4C0, symSize: 0x24 }
  - { offsetInCU: 0x18568, offset: 0x18568, size: 0x8, addend: 0x0, symName: __ZNKSt3__122__compressed_pair_elemINS_15__tree_end_nodeIPNS_16__tree_node_baseIPvEEEELi0ELb0EE5__getB7v160006Ev, symObjAddr: 0x7B9C, symBinAddr: 0x10000B4E4, symSize: 0x14 }
  - { offsetInCU: 0x1858E, offset: 0x1858E, size: 0x8, addend: 0x0, symName: __ZNSt3__117__compressed_pairImNS_19__map_value_compareINS_12basic_stringIcNS_11char_traitsIcEENS_9allocatorIcEEEENS_12__value_typeIS7_S7_EENS_4lessIS7_EELb1EEEE6secondB7v160006Ev, symObjAddr: 0x7BB0, symBinAddr: 0x10000B4F8, symSize: 0x24 }
  - { offsetInCU: 0x185B4, offset: 0x185B4, size: 0x8, addend: 0x0, symName: __ZNSt3__122__compressed_pair_elemINS_19__map_value_compareINS_12basic_stringIcNS_11char_traitsIcEENS_9allocatorIcEEEENS_12__value_typeIS7_S7_EENS_4lessIS7_EELb1EEELi1ELb1EE5__getB7v160006Ev, symObjAddr: 0x7BD4, symBinAddr: 0x10000B51C, symSize: 0x14 }
  - { offsetInCU: 0x185DA, offset: 0x185DA, size: 0x8, addend: 0x0, symName: __ZNKSt3__14lessINS_12basic_stringIcNS_11char_traitsIcEENS_9allocatorIcEEEEEclB7v160006ERKS6_S9_, symObjAddr: 0x7BE8, symBinAddr: 0x10000B530, symSize: 0x34 }
  - { offsetInCU: 0x1861E, offset: 0x1861E, size: 0x8, addend: 0x0, symName: __ZNKSt3__112__value_typeINS_12basic_stringIcNS_11char_traitsIcEENS_9allocatorIcEEEES6_E11__get_valueB7v160006Ev, symObjAddr: 0x7C1C, symBinAddr: 0x10000B564, symSize: 0x14 }
  - { offsetInCU: 0x18644, offset: 0x18644, size: 0x8, addend: 0x0, symName: __ZNKSt3__112basic_stringIcNS_11char_traitsIcEENS_9allocatorIcEEE7compareB7v160006ERKS5_, symObjAddr: 0x7C68, symBinAddr: 0x10000B5B0, symSize: 0x4C }
  - { offsetInCU: 0x1867B, offset: 0x1867B, size: 0x8, addend: 0x0, symName: __ZNKSt3__112basic_stringIcNS_11char_traitsIcEENS_9allocatorIcEEE7compareINS_17basic_string_viewIcS2_EEEENS_9enable_ifIXsr33__can_be_converted_to_string_viewIcS2_T_EE5valueEiE4typeERKSA_, symObjAddr: 0x7CB4, symBinAddr: 0x10000B5FC, symSize: 0x140 }
  - { offsetInCU: 0x186F8, offset: 0x186F8, size: 0x8, addend: 0x0, symName: __ZNKSt3__112basic_stringIcNS_11char_traitsIcEENS_9allocatorIcEEEcvNS_17basic_string_viewIcS2_EEB7v160006Ev, symObjAddr: 0x7DF4, symBinAddr: 0x10000B73C, symSize: 0x50 }
  - { offsetInCU: 0x1871E, offset: 0x1871E, size: 0x8, addend: 0x0, symName: __ZNKSt3__112basic_stringIcNS_11char_traitsIcEENS_9allocatorIcEEE4sizeB7v160006Ev, symObjAddr: 0x7E44, symBinAddr: 0x10000B78C, symSize: 0x54 }
  - { offsetInCU: 0x18744, offset: 0x18744, size: 0x8, addend: 0x0, symName: __ZNKSt3__117basic_string_viewIcNS_11char_traitsIcEEE4sizeB7v160006Ev, symObjAddr: 0x7E98, symBinAddr: 0x10000B7E0, symSize: 0x18 }
  - { offsetInCU: 0x1876A, offset: 0x1876A, size: 0x8, addend: 0x0, symName: __ZNSt3__111char_traitsIcE7compareEPKcS3_m, symObjAddr: 0x7EB0, symBinAddr: 0x10000B7F8, symSize: 0x80 }
  - { offsetInCU: 0x187A9, offset: 0x187A9, size: 0x8, addend: 0x0, symName: __ZNKSt3__117basic_string_viewIcNS_11char_traitsIcEEE4dataB7v160006Ev, symObjAddr: 0x7F30, symBinAddr: 0x10000B878, symSize: 0x18 }
  - { offsetInCU: 0x187CF, offset: 0x187CF, size: 0x8, addend: 0x0, symName: __ZNKSt3__112basic_stringIcNS_11char_traitsIcEENS_9allocatorIcEEE15__get_long_sizeB7v160006Ev, symObjAddr: 0x7F48, symBinAddr: 0x10000B890, symSize: 0x28 }
  - { offsetInCU: 0x187F5, offset: 0x187F5, size: 0x8, addend: 0x0, symName: __ZNKSt3__112basic_stringIcNS_11char_traitsIcEENS_9allocatorIcEEE16__get_short_sizeB7v160006Ev, symObjAddr: 0x7F70, symBinAddr: 0x10000B8B8, symSize: 0x34 }
  - { offsetInCU: 0x1881B, offset: 0x1881B, size: 0x8, addend: 0x0, symName: __ZNSt3__117basic_string_viewIcNS_11char_traitsIcEEEC1B7v160006EPKcm, symObjAddr: 0x7FD8, symBinAddr: 0x10000B920, symSize: 0x3C }
  - { offsetInCU: 0x18863, offset: 0x18863, size: 0x8, addend: 0x0, symName: __ZNSt3__117basic_string_viewIcNS_11char_traitsIcEEEC2B7v160006EPKcm, symObjAddr: 0x8014, symBinAddr: 0x10000B95C, symSize: 0x2C }
  - { offsetInCU: 0x188AB, offset: 0x188AB, size: 0x8, addend: 0x0, symName: __ZNSt3__117__compressed_pairINS_15__tree_end_nodeIPNS_16__tree_node_baseIPvEEEENS_9allocatorINS_11__tree_nodeINS_12__value_typeINS_12basic_stringIcNS_11char_traitsIcEENS7_IcEEEESE_EES3_EEEEE5firstB7v160006Ev, symObjAddr: 0x8040, symBinAddr: 0x10000B988, symSize: 0x24 }
  - { offsetInCU: 0x188D1, offset: 0x188D1, size: 0x8, addend: 0x0, symName: __ZNSt3__122__compressed_pair_elemINS_15__tree_end_nodeIPNS_16__tree_node_baseIPvEEEELi0ELb0EE5__getB7v160006Ev, symObjAddr: 0x8064, symBinAddr: 0x10000B9AC, symSize: 0x14 }
  - { offsetInCU: 0x188F7, offset: 0x188F7, size: 0x8, addend: 0x0, symName: __ZNSt3__16__treeINS_12__value_typeINS_12basic_stringIcNS_11char_traitsIcEENS_9allocatorIcEEEES7_EENS_19__map_value_compareIS7_S8_NS_4lessIS7_EELb1EEENS5_IS8_EEE12__node_allocB7v160006Ev, symObjAddr: 0x8078, symBinAddr: 0x10000B9C0, symSize: 0x28 }
  - { offsetInCU: 0x1891D, offset: 0x1891D, size: 0x8, addend: 0x0, symName: __ZNSt3__116allocator_traitsINS_9allocatorINS_11__tree_nodeINS_12__value_typeINS_12basic_stringIcNS_11char_traitsIcEENS1_IcEEEES8_EEPvEEEEE8allocateB7v160006ERSC_m, symObjAddr: 0x80A0, symBinAddr: 0x10000B9E8, symSize: 0x2C }
  - { offsetInCU: 0x18950, offset: 0x18950, size: 0x8, addend: 0x0, symName: __ZNSt3__121__map_node_destructorINS_9allocatorINS_11__tree_nodeINS_12__value_typeINS_12basic_stringIcNS_11char_traitsIcEENS1_IcEEEES8_EEPvEEEEEC1B7v160006ERSC_, symObjAddr: 0x80CC, symBinAddr: 0x10000BA14, symSize: 0x34 }
  - { offsetInCU: 0x1898E, offset: 0x1898E, size: 0x8, addend: 0x0, symName: __ZNSt3__110unique_ptrINS_11__tree_nodeINS_12__value_typeINS_12basic_stringIcNS_11char_traitsIcEENS_9allocatorIcEEEES8_EEPvEENS_21__map_node_destructorINS6_ISB_EEEEEC1B7v160006ILb1EvEEPSB_NS_16__dependent_typeINS_27__unique_ptr_deleter_sfinaeISE_EEXT_EE20__good_rval_ref_typeE, symObjAddr: 0x8100, symBinAddr: 0x10000BA48, symSize: 0x3C }
  - { offsetInCU: 0x189DF, offset: 0x189DF, size: 0x8, addend: 0x0, symName: __ZNSt3__116allocator_traitsINS_9allocatorINS_11__tree_nodeINS_12__value_typeINS_12basic_stringIcNS_11char_traitsIcEENS1_IcEEEES8_EEPvEEEEE9constructB7v160006IKS8_JRSF_EvEEvRSC_PT_DpOT0_, symObjAddr: 0x813C, symBinAddr: 0x10000BA84, symSize: 0x34 }
  - { offsetInCU: 0x18A36, offset: 0x18A36, size: 0x8, addend: 0x0, symName: __ZNKSt3__110unique_ptrINS_11__tree_nodeINS_12__value_typeINS_12basic_stringIcNS_11char_traitsIcEENS_9allocatorIcEEEES8_EEPvEENS_21__map_node_destructorINS6_ISB_EEEEEptB7v160006Ev, symObjAddr: 0x8170, symBinAddr: 0x10000BAB8, symSize: 0x28 }
  - { offsetInCU: 0x18A5C, offset: 0x18A5C, size: 0x8, addend: 0x0, symName: __ZNSt3__110unique_ptrINS_11__tree_nodeINS_12__value_typeINS_12basic_stringIcNS_11char_traitsIcEENS_9allocatorIcEEEES8_EEPvEENS_21__map_node_destructorINS6_ISB_EEEEE11get_deleterB7v160006Ev, symObjAddr: 0x8198, symBinAddr: 0x10000BAE0, symSize: 0x24 }
  - { offsetInCU: 0x18A82, offset: 0x18A82, size: 0x8, addend: 0x0, symName: __ZNSt3__116allocator_traitsINS_9allocatorINS_11__tree_nodeINS_12__value_typeINS_12basic_stringIcNS_11char_traitsIcEENS1_IcEEEES8_EEPvEEEEE9constructB7v160006IS8_JEvEEvRSC_PT_DpOT0_, symObjAddr: 0x81BC, symBinAddr: 0x10000BB04, symSize: 0x2C }
  - { offsetInCU: 0x18AC4, offset: 0x18AC4, size: 0x8, addend: 0x0, symName: __ZNSt3__117__compressed_pairINS_15__tree_end_nodeIPNS_16__tree_node_baseIPvEEEENS_9allocatorINS_11__tree_nodeINS_12__value_typeINS_12basic_stringIcNS_11char_traitsIcEENS7_IcEEEESE_EES3_EEEEE6secondB7v160006Ev, symObjAddr: 0x81E8, symBinAddr: 0x10000BB30, symSize: 0x24 }
  - { offsetInCU: 0x18AEA, offset: 0x18AEA, size: 0x8, addend: 0x0, symName: __ZNSt3__122__compressed_pair_elemINS_9allocatorINS_11__tree_nodeINS_12__value_typeINS_12basic_stringIcNS_11char_traitsIcEENS1_IcEEEES8_EEPvEEEELi1ELb1EE5__getB7v160006Ev, symObjAddr: 0x820C, symBinAddr: 0x10000BB54, symSize: 0x14 }
  - { offsetInCU: 0x18B10, offset: 0x18B10, size: 0x8, addend: 0x0, symName: __ZNSt3__19allocatorINS_11__tree_nodeINS_12__value_typeINS_12basic_stringIcNS_11char_traitsIcEENS0_IcEEEES7_EEPvEEE8allocateB7v160006Em, symObjAddr: 0x8220, symBinAddr: 0x10000BB68, symSize: 0x8C }
  - { offsetInCU: 0x18B4E, offset: 0x18B4E, size: 0x8, addend: 0x0, symName: __ZNSt3__116allocator_traitsINS_9allocatorINS_11__tree_nodeINS_12__value_typeINS_12basic_stringIcNS_11char_traitsIcEENS1_IcEEEES8_EEPvEEEEE8max_sizeB7v160006ISC_vEEmRKSC_, symObjAddr: 0x82AC, symBinAddr: 0x10000BBF4, symSize: 0x24 }
  - { offsetInCU: 0x18B7C, offset: 0x18B7C, size: 0x8, addend: 0x0, symName: __ZNKSt3__19allocatorINS_11__tree_nodeINS_12__value_typeINS_12basic_stringIcNS_11char_traitsIcEENS0_IcEEEES7_EEPvEEE8max_sizeB7v160006Ev, symObjAddr: 0x82D0, symBinAddr: 0x10000BC18, symSize: 0x18 }
  - { offsetInCU: 0x18BA2, offset: 0x18BA2, size: 0x8, addend: 0x0, symName: __ZNSt3__121__map_node_destructorINS_9allocatorINS_11__tree_nodeINS_12__value_typeINS_12basic_stringIcNS_11char_traitsIcEENS1_IcEEEES8_EEPvEEEEEC2B7v160006ERSC_, symObjAddr: 0x82E8, symBinAddr: 0x10000BC30, symSize: 0x28 }
  - { offsetInCU: 0x18BDB, offset: 0x18BDB, size: 0x8, addend: 0x0, symName: __ZNSt3__110unique_ptrINS_11__tree_nodeINS_12__value_typeINS_12basic_stringIcNS_11char_traitsIcEENS_9allocatorIcEEEES8_EEPvEENS_21__map_node_destructorINS6_ISB_EEEEEC2B7v160006ILb1EvEEPSB_NS_16__dependent_typeINS_27__unique_ptr_deleter_sfinaeISE_EEXT_EE20__good_rval_ref_typeE, symObjAddr: 0x8310, symBinAddr: 0x10000BC58, symSize: 0x5C }
  - { offsetInCU: 0x18C2C, offset: 0x18C2C, size: 0x8, addend: 0x0, symName: __ZNSt3__117__compressed_pairIPNS_11__tree_nodeINS_12__value_typeINS_12basic_stringIcNS_11char_traitsIcEENS_9allocatorIcEEEES8_EEPvEENS_21__map_node_destructorINS6_ISB_EEEEEC1B7v160006IRSC_SF_EEOT_OT0_, symObjAddr: 0x836C, symBinAddr: 0x10000BCB4, symSize: 0x3C }
  - { offsetInCU: 0x18C84, offset: 0x18C84, size: 0x8, addend: 0x0, symName: __ZNSt3__117__compressed_pairIPNS_11__tree_nodeINS_12__value_typeINS_12basic_stringIcNS_11char_traitsIcEENS_9allocatorIcEEEES8_EEPvEENS_21__map_node_destructorINS6_ISB_EEEEEC2B7v160006IRSC_SF_EEOT_OT0_, symObjAddr: 0x83A8, symBinAddr: 0x10000BCF0, symSize: 0x48 }
  - { offsetInCU: 0x18CDC, offset: 0x18CDC, size: 0x8, addend: 0x0, symName: __ZNSt3__122__compressed_pair_elemIPNS_11__tree_nodeINS_12__value_typeINS_12basic_stringIcNS_11char_traitsIcEENS_9allocatorIcEEEES8_EEPvEELi0ELb0EEC2B7v160006IRSC_vEEOT_, symObjAddr: 0x83F0, symBinAddr: 0x10000BD38, symSize: 0x24 }
  - { offsetInCU: 0x18D1E, offset: 0x18D1E, size: 0x8, addend: 0x0, symName: __ZNSt3__122__compressed_pair_elemINS_21__map_node_destructorINS_9allocatorINS_11__tree_nodeINS_12__value_typeINS_12basic_stringIcNS_11char_traitsIcEENS2_IcEEEES9_EEPvEEEEEELi1ELb0EEC2B7v160006ISE_vEEOT_, symObjAddr: 0x8414, symBinAddr: 0x10000BD5C, symSize: 0x24 }
  - { offsetInCU: 0x18D60, offset: 0x18D60, size: 0x8, addend: 0x0, symName: __ZNSt3__19allocatorINS_11__tree_nodeINS_12__value_typeINS_12basic_stringIcNS_11char_traitsIcEENS0_IcEEEES7_EEPvEEE9constructB7v160006IKS7_JRSD_EEEvPT_DpOT0_, symObjAddr: 0x8438, symBinAddr: 0x10000BD80, symSize: 0x30 }
  - { offsetInCU: 0x18DB6, offset: 0x18DB6, size: 0x8, addend: 0x0, symName: __ZNKSt3__117__compressed_pairIPNS_11__tree_nodeINS_12__value_typeINS_12basic_stringIcNS_11char_traitsIcEENS_9allocatorIcEEEES8_EEPvEENS_21__map_node_destructorINS6_ISB_EEEEE5firstB7v160006Ev, symObjAddr: 0x8468, symBinAddr: 0x10000BDB0, symSize: 0x24 }
  - { offsetInCU: 0x18DDC, offset: 0x18DDC, size: 0x8, addend: 0x0, symName: __ZNKSt3__122__compressed_pair_elemIPNS_11__tree_nodeINS_12__value_typeINS_12basic_stringIcNS_11char_traitsIcEENS_9allocatorIcEEEES8_EEPvEELi0ELb0EE5__getB7v160006Ev, symObjAddr: 0x848C, symBinAddr: 0x10000BDD4, symSize: 0x14 }
  - { offsetInCU: 0x18E02, offset: 0x18E02, size: 0x8, addend: 0x0, symName: __ZNSt3__117__compressed_pairIPNS_11__tree_nodeINS_12__value_typeINS_12basic_stringIcNS_11char_traitsIcEENS_9allocatorIcEEEES8_EEPvEENS_21__map_node_destructorINS6_ISB_EEEEE6secondB7v160006Ev, symObjAddr: 0x84A0, symBinAddr: 0x10000BDE8, symSize: 0x28 }
  - { offsetInCU: 0x18E28, offset: 0x18E28, size: 0x8, addend: 0x0, symName: __ZNSt3__122__compressed_pair_elemINS_21__map_node_destructorINS_9allocatorINS_11__tree_nodeINS_12__value_typeINS_12basic_stringIcNS_11char_traitsIcEENS2_IcEEEES9_EEPvEEEEEELi1ELb0EE5__getB7v160006Ev, symObjAddr: 0x84C8, symBinAddr: 0x10000BE10, symSize: 0x14 }
  - { offsetInCU: 0x18E4E, offset: 0x18E4E, size: 0x8, addend: 0x0, symName: __ZNSt3__19allocatorINS_11__tree_nodeINS_12__value_typeINS_12basic_stringIcNS_11char_traitsIcEENS0_IcEEEES7_EEPvEEE9constructB7v160006IS7_JEEEvPT_DpOT0_, symObjAddr: 0x84DC, symBinAddr: 0x10000BE24, symSize: 0x28 }
  - { offsetInCU: 0x18E90, offset: 0x18E90, size: 0x8, addend: 0x0, symName: __ZNSt3__16__treeINS_12__value_typeINS_12basic_stringIcNS_11char_traitsIcEENS_9allocatorIcEEEES7_EENS_19__map_value_compareIS7_S8_NS_4lessIS7_EELb1EEENS5_IS8_EEE12__begin_nodeB7v160006Ev, symObjAddr: 0x8504, symBinAddr: 0x10000BE4C, symSize: 0x14 }
  - { offsetInCU: 0x18EB6, offset: 0x18EB6, size: 0x8, addend: 0x0, symName: __ZNSt3__16__treeINS_12__value_typeINS_12basic_stringIcNS_11char_traitsIcEENS_9allocatorIcEEEES7_EENS_19__map_value_compareIS7_S8_NS_4lessIS7_EELb1EEENS5_IS8_EEE4sizeB7v160006Ev, symObjAddr: 0x8858, symBinAddr: 0x10000C1A0, symSize: 0x28 }
  - { offsetInCU: 0x18EDC, offset: 0x18EDC, size: 0x8, addend: 0x0, symName: __ZNKSt3__116__tree_node_baseIPvE15__parent_unsafeB7v160006Ev, symObjAddr: 0x8880, symBinAddr: 0x10000C1C8, symSize: 0x18 }
  - { offsetInCU: 0x18F02, offset: 0x18F02, size: 0x8, addend: 0x0, symName: __ZNSt3__116__tree_node_baseIPvE12__set_parentB7v160006EPS2_, symObjAddr: 0x8A7C, symBinAddr: 0x10000C3C4, symSize: 0x20 }
  - { offsetInCU: 0x18F37, offset: 0x18F37, size: 0x8, addend: 0x0, symName: __ZNSt3__117__compressed_pairImNS_19__map_value_compareINS_12basic_stringIcNS_11char_traitsIcEENS_9allocatorIcEEEENS_12__value_typeIS7_S7_EENS_4lessIS7_EELb1EEEE5firstB7v160006Ev, symObjAddr: 0x8A9C, symBinAddr: 0x10000C3E4, symSize: 0x24 }
  - { offsetInCU: 0x18F5D, offset: 0x18F5D, size: 0x8, addend: 0x0, symName: __ZNSt3__122__compressed_pair_elemImLi0ELb0EE5__getB7v160006Ev, symObjAddr: 0x8AC0, symBinAddr: 0x10000C408, symSize: 0x14 }
  - { offsetInCU: 0x18F83, offset: 0x18F83, size: 0x8, addend: 0x0, symName: __ZNSt3__117__compressed_pairIPNS_11__tree_nodeINS_12__value_typeINS_12basic_stringIcNS_11char_traitsIcEENS_9allocatorIcEEEES8_EEPvEENS_21__map_node_destructorINS6_ISB_EEEEE5firstB7v160006Ev, symObjAddr: 0x8AD4, symBinAddr: 0x10000C41C, symSize: 0x24 }
  - { offsetInCU: 0x18FA9, offset: 0x18FA9, size: 0x8, addend: 0x0, symName: __ZNSt3__122__compressed_pair_elemIPNS_11__tree_nodeINS_12__value_typeINS_12basic_stringIcNS_11char_traitsIcEENS_9allocatorIcEEEES8_EEPvEELi0ELb0EE5__getB7v160006Ev, symObjAddr: 0x8AF8, symBinAddr: 0x10000C440, symSize: 0x14 }
  - { offsetInCU: 0x18FCF, offset: 0x18FCF, size: 0x8, addend: 0x0, symName: __ZNSt3__110unique_ptrINS_11__tree_nodeINS_12__value_typeINS_12basic_stringIcNS_11char_traitsIcEENS_9allocatorIcEEEES8_EEPvEENS_21__map_node_destructorINS6_ISB_EEEEED2B7v160006Ev, symObjAddr: 0x8B0C, symBinAddr: 0x10000C454, symSize: 0x30 }
  - { offsetInCU: 0x18FF9, offset: 0x18FF9, size: 0x8, addend: 0x0, symName: __ZNSt3__110unique_ptrINS_11__tree_nodeINS_12__value_typeINS_12basic_stringIcNS_11char_traitsIcEENS_9allocatorIcEEEES8_EEPvEENS_21__map_node_destructorINS6_ISB_EEEEE5resetB7v160006EPSB_, symObjAddr: 0x8B3C, symBinAddr: 0x10000C484, symSize: 0x78 }
  - { offsetInCU: 0x1903D, offset: 0x1903D, size: 0x8, addend: 0x0, symName: __ZNSt3__121__map_node_destructorINS_9allocatorINS_11__tree_nodeINS_12__value_typeINS_12basic_stringIcNS_11char_traitsIcEENS1_IcEEEES8_EEPvEEEEEclB7v160006EPSB_, symObjAddr: 0x8BB4, symBinAddr: 0x10000C4FC, symSize: 0xF4 }
  - { offsetInCU: 0x19072, offset: 0x19072, size: 0x8, addend: 0x0, symName: __ZNSt3__116allocator_traitsINS_9allocatorINS_11__tree_nodeINS_12__value_typeINS_12basic_stringIcNS_11char_traitsIcEENS1_IcEEEES8_EEPvEEEEE7destroyB7v160006IS8_vvEEvRSC_PT_, symObjAddr: 0x8CA8, symBinAddr: 0x10000C5F0, symSize: 0x28 }
  - { offsetInCU: 0x190AC, offset: 0x190AC, size: 0x8, addend: 0x0, symName: __ZNSt3__116allocator_traitsINS_9allocatorINS_11__tree_nodeINS_12__value_typeINS_12basic_stringIcNS_11char_traitsIcEENS1_IcEEEES8_EEPvEEEEE7destroyB7v160006IKS8_vvEEvRSC_PT_, symObjAddr: 0x8CD0, symBinAddr: 0x10000C618, symSize: 0x28 }
  - { offsetInCU: 0x190E6, offset: 0x190E6, size: 0x8, addend: 0x0, symName: __ZNSt3__116allocator_traitsINS_9allocatorINS_11__tree_nodeINS_12__value_typeINS_12basic_stringIcNS_11char_traitsIcEENS1_IcEEEES8_EEPvEEEEE10deallocateB7v160006ERSC_PSB_m, symObjAddr: 0x8CF8, symBinAddr: 0x10000C640, symSize: 0x34 }
  - { offsetInCU: 0x19128, offset: 0x19128, size: 0x8, addend: 0x0, symName: __ZNSt3__19allocatorINS_11__tree_nodeINS_12__value_typeINS_12basic_stringIcNS_11char_traitsIcEENS0_IcEEEES7_EEPvEEE10deallocateB7v160006EPSA_m, symObjAddr: 0x8D2C, symBinAddr: 0x10000C674, symSize: 0x74 }
  - { offsetInCU: 0x1916A, offset: 0x1916A, size: 0x8, addend: 0x0, symName: __ZNSt3__16vectorIPK15ListenStatementNS_9allocatorIS3_EEE9__end_capB7v160006Ev, symObjAddr: 0x8DA0, symBinAddr: 0x10000C6E8, symSize: 0x28 }
  - { offsetInCU: 0x19195, offset: 0x19195, size: 0x8, addend: 0x0, symName: __ZNSt3__16vectorIPK15ListenStatementNS_9allocatorIS3_EEE22__construct_one_at_endB7v160006IJS3_EEEvDpOT_, symObjAddr: 0x8DC8, symBinAddr: 0x10000C710, symSize: 0x98 }
  - { offsetInCU: 0x191E4, offset: 0x191E4, size: 0x8, addend: 0x0, symName: __ZNSt3__16vectorIPK15ListenStatementNS_9allocatorIS3_EEE21__push_back_slow_pathIS3_EEvOT_, symObjAddr: 0x8E60, symBinAddr: 0x10000C7A8, symSize: 0xE0 }
  - { offsetInCU: 0x19242, offset: 0x19242, size: 0x8, addend: 0x0, symName: __ZNSt3__117__compressed_pairIPPK15ListenStatementNS_9allocatorIS3_EEE5firstB7v160006Ev, symObjAddr: 0x8F40, symBinAddr: 0x10000C888, symSize: 0x24 }
  - { offsetInCU: 0x19268, offset: 0x19268, size: 0x8, addend: 0x0, symName: __ZNSt3__122__compressed_pair_elemIPPK15ListenStatementLi0ELb0EE5__getB7v160006Ev, symObjAddr: 0x8F64, symBinAddr: 0x10000C8AC, symSize: 0x14 }
  - { offsetInCU: 0x192A7, offset: 0x192A7, size: 0x8, addend: 0x0, symName: __ZNSt3__16vectorIPK15ListenStatementNS_9allocatorIS3_EEE21_ConstructTransactionC1B7v160006ERS6_m, symObjAddr: 0x8F78, symBinAddr: 0x10000C8C0, symSize: 0x3C }
  - { offsetInCU: 0x192EF, offset: 0x192EF, size: 0x8, addend: 0x0, symName: __ZNSt3__116allocator_traitsINS_9allocatorIPK15ListenStatementEEE9constructB7v160006IS4_JS4_EvEEvRS5_PT_DpOT0_, symObjAddr: 0x8FB4, symBinAddr: 0x10000C8FC, symSize: 0x34 }
  - { offsetInCU: 0x19346, offset: 0x19346, size: 0x8, addend: 0x0, symName: __ZNSt3__16vectorIPK15ListenStatementNS_9allocatorIS3_EEE7__allocB7v160006Ev, symObjAddr: 0x8FE8, symBinAddr: 0x10000C930, symSize: 0x28 }
  - { offsetInCU: 0x1936C, offset: 0x1936C, size: 0x8, addend: 0x0, symName: __ZNSt3__16vectorIPK15ListenStatementNS_9allocatorIS3_EEE21_ConstructTransactionD1B7v160006Ev, symObjAddr: 0x9024, symBinAddr: 0x10000C96C, symSize: 0x2C }
  - { offsetInCU: 0x19396, offset: 0x19396, size: 0x8, addend: 0x0, symName: __ZNSt3__16vectorIPK15ListenStatementNS_9allocatorIS3_EEE21_ConstructTransactionC2B7v160006ERS6_m, symObjAddr: 0x9050, symBinAddr: 0x10000C998, symSize: 0x44 }
  - { offsetInCU: 0x193DE, offset: 0x193DE, size: 0x8, addend: 0x0, symName: __ZNSt3__19allocatorIPK15ListenStatementE9constructB7v160006IS3_JS3_EEEvPT_DpOT0_, symObjAddr: 0x9094, symBinAddr: 0x10000C9DC, symSize: 0x28 }
  - { offsetInCU: 0x19434, offset: 0x19434, size: 0x8, addend: 0x0, symName: __ZNSt3__117__compressed_pairIPPK15ListenStatementNS_9allocatorIS3_EEE6secondB7v160006Ev, symObjAddr: 0x90BC, symBinAddr: 0x10000CA04, symSize: 0x24 }
  - { offsetInCU: 0x1945A, offset: 0x1945A, size: 0x8, addend: 0x0, symName: __ZNSt3__122__compressed_pair_elemINS_9allocatorIPK15ListenStatementEELi1ELb1EE5__getB7v160006Ev, symObjAddr: 0x90E0, symBinAddr: 0x10000CA28, symSize: 0x14 }
  - { offsetInCU: 0x19480, offset: 0x19480, size: 0x8, addend: 0x0, symName: __ZNSt3__16vectorIPK15ListenStatementNS_9allocatorIS3_EEE21_ConstructTransactionD2B7v160006Ev, symObjAddr: 0x90F4, symBinAddr: 0x10000CA3C, symSize: 0x20 }
  - { offsetInCU: 0x194AA, offset: 0x194AA, size: 0x8, addend: 0x0, symName: __ZNKSt3__16vectorIPK15ListenStatementNS_9allocatorIS3_EEE11__recommendB7v160006Em, symObjAddr: 0x9114, symBinAddr: 0x10000CA5C, symSize: 0xB4 }
  - { offsetInCU: 0x194FF, offset: 0x194FF, size: 0x8, addend: 0x0, symName: __ZNKSt3__16vectorIPK15ListenStatementNS_9allocatorIS3_EEE4sizeB7v160006Ev, symObjAddr: 0x91C8, symBinAddr: 0x10000CB10, symSize: 0x28 }
  - { offsetInCU: 0x19525, offset: 0x19525, size: 0x8, addend: 0x0, symName: __ZNSt3__114__split_bufferIPK15ListenStatementRNS_9allocatorIS3_EEEC1EmmS6_, symObjAddr: 0x91F0, symBinAddr: 0x10000CB38, symSize: 0x44 }
  - { offsetInCU: 0x1957B, offset: 0x1957B, size: 0x8, addend: 0x0, symName: __ZNSt3__114__split_bufferIPK15ListenStatementRNS_9allocatorIS3_EEED1Ev, symObjAddr: 0x934C, symBinAddr: 0x10000CC94, symSize: 0x2C }
  - { offsetInCU: 0x195A7, offset: 0x195A7, size: 0x8, addend: 0x0, symName: __ZNKSt3__16vectorIPK15ListenStatementNS_9allocatorIS3_EEE8max_sizeEv, symObjAddr: 0x9378, symBinAddr: 0x10000CCC0, symSize: 0x74 }
  - { offsetInCU: 0x195CF, offset: 0x195CF, size: 0x8, addend: 0x0, symName: __ZNKSt3__16vectorIPK15ListenStatementNS_9allocatorIS3_EEE20__throw_length_errorB7v160006Ev, symObjAddr: 0x93EC, symBinAddr: 0x10000CD34, symSize: 0x1C }
  - { offsetInCU: 0x195F5, offset: 0x195F5, size: 0x8, addend: 0x0, symName: __ZNKSt3__16vectorIPK15ListenStatementNS_9allocatorIS3_EEE8capacityB7v160006Ev, symObjAddr: 0x9408, symBinAddr: 0x10000CD50, symSize: 0x40 }
  - { offsetInCU: 0x19625, offset: 0x19625, size: 0x8, addend: 0x0, symName: __ZNSt3__116allocator_traitsINS_9allocatorIPK15ListenStatementEEE8max_sizeB7v160006IS5_vEEmRKS5_, symObjAddr: 0x9448, symBinAddr: 0x10000CD90, symSize: 0x24 }
  - { offsetInCU: 0x19653, offset: 0x19653, size: 0x8, addend: 0x0, symName: __ZNKSt3__16vectorIPK15ListenStatementNS_9allocatorIS3_EEE7__allocB7v160006Ev, symObjAddr: 0x946C, symBinAddr: 0x10000CDB4, symSize: 0x28 }
  - { offsetInCU: 0x19679, offset: 0x19679, size: 0x8, addend: 0x0, symName: __ZNKSt3__19allocatorIPK15ListenStatementE8max_sizeB7v160006Ev, symObjAddr: 0x9494, symBinAddr: 0x10000CDDC, symSize: 0x14 }
  - { offsetInCU: 0x1969F, offset: 0x1969F, size: 0x8, addend: 0x0, symName: __ZNKSt3__117__compressed_pairIPPK15ListenStatementNS_9allocatorIS3_EEE6secondB7v160006Ev, symObjAddr: 0x94A8, symBinAddr: 0x10000CDF0, symSize: 0x24 }
  - { offsetInCU: 0x196C5, offset: 0x196C5, size: 0x8, addend: 0x0, symName: __ZNKSt3__122__compressed_pair_elemINS_9allocatorIPK15ListenStatementEELi1ELb1EE5__getB7v160006Ev, symObjAddr: 0x94CC, symBinAddr: 0x10000CE14, symSize: 0x14 }
  - { offsetInCU: 0x196EB, offset: 0x196EB, size: 0x8, addend: 0x0, symName: __ZNKSt3__16vectorIPK15ListenStatementNS_9allocatorIS3_EEE9__end_capB7v160006Ev, symObjAddr: 0x94E0, symBinAddr: 0x10000CE28, symSize: 0x28 }
  - { offsetInCU: 0x19711, offset: 0x19711, size: 0x8, addend: 0x0, symName: __ZNKSt3__117__compressed_pairIPPK15ListenStatementNS_9allocatorIS3_EEE5firstB7v160006Ev, symObjAddr: 0x9508, symBinAddr: 0x10000CE50, symSize: 0x24 }
  - { offsetInCU: 0x19737, offset: 0x19737, size: 0x8, addend: 0x0, symName: __ZNKSt3__122__compressed_pair_elemIPPK15ListenStatementLi0ELb0EE5__getB7v160006Ev, symObjAddr: 0x952C, symBinAddr: 0x10000CE74, symSize: 0x14 }
  - { offsetInCU: 0x1975D, offset: 0x1975D, size: 0x8, addend: 0x0, symName: __ZNSt3__114__split_bufferIPK15ListenStatementRNS_9allocatorIS3_EEEC2EmmS6_, symObjAddr: 0x9540, symBinAddr: 0x10000CE88, symSize: 0xD4 }
  - { offsetInCU: 0x197D0, offset: 0x197D0, size: 0x8, addend: 0x0, symName: __ZNSt3__117__compressed_pairIPPK15ListenStatementRNS_9allocatorIS3_EEEC1B7v160006IDnS7_EEOT_OT0_, symObjAddr: 0x9614, symBinAddr: 0x10000CF5C, symSize: 0x3C }
  - { offsetInCU: 0x19828, offset: 0x19828, size: 0x8, addend: 0x0, symName: __ZNSt3__114__split_bufferIPK15ListenStatementRNS_9allocatorIS3_EEE7__allocB7v160006Ev, symObjAddr: 0x9690, symBinAddr: 0x10000CFD8, symSize: 0x28 }
  - { offsetInCU: 0x1984E, offset: 0x1984E, size: 0x8, addend: 0x0, symName: __ZNSt3__114__split_bufferIPK15ListenStatementRNS_9allocatorIS3_EEE9__end_capB7v160006Ev, symObjAddr: 0x96B8, symBinAddr: 0x10000D000, symSize: 0x28 }
  - { offsetInCU: 0x19874, offset: 0x19874, size: 0x8, addend: 0x0, symName: __ZNSt3__117__compressed_pairIPPK15ListenStatementRNS_9allocatorIS3_EEEC2B7v160006IDnS7_EEOT_OT0_, symObjAddr: 0x96E0, symBinAddr: 0x10000D028, symSize: 0x48 }
  - { offsetInCU: 0x198CC, offset: 0x198CC, size: 0x8, addend: 0x0, symName: __ZNSt3__122__compressed_pair_elemIPPK15ListenStatementLi0ELb0EEC2B7v160006IDnvEEOT_, symObjAddr: 0x9728, symBinAddr: 0x10000D070, symSize: 0x1C }
  - { offsetInCU: 0x1990E, offset: 0x1990E, size: 0x8, addend: 0x0, symName: __ZNSt3__122__compressed_pair_elemIRNS_9allocatorIPK15ListenStatementEELi1ELb0EEC2B7v160006IS6_vEEOT_, symObjAddr: 0x9744, symBinAddr: 0x10000D08C, symSize: 0x20 }
  - { offsetInCU: 0x19950, offset: 0x19950, size: 0x8, addend: 0x0, symName: __ZNSt3__19allocatorIPK15ListenStatementE8allocateB7v160006Em, symObjAddr: 0x9764, symBinAddr: 0x10000D0AC, symSize: 0x84 }
  - { offsetInCU: 0x19984, offset: 0x19984, size: 0x8, addend: 0x0, symName: __ZNSt3__117__compressed_pairIPPK15ListenStatementRNS_9allocatorIS3_EEE6secondB7v160006Ev, symObjAddr: 0x97E8, symBinAddr: 0x10000D130, symSize: 0x28 }
  - { offsetInCU: 0x199AA, offset: 0x199AA, size: 0x8, addend: 0x0, symName: __ZNSt3__122__compressed_pair_elemIRNS_9allocatorIPK15ListenStatementEELi1ELb0EE5__getB7v160006Ev, symObjAddr: 0x9810, symBinAddr: 0x10000D158, symSize: 0x18 }
  - { offsetInCU: 0x199D0, offset: 0x199D0, size: 0x8, addend: 0x0, symName: __ZNSt3__117__compressed_pairIPPK15ListenStatementRNS_9allocatorIS3_EEE5firstB7v160006Ev, symObjAddr: 0x9828, symBinAddr: 0x10000D170, symSize: 0x24 }
  - { offsetInCU: 0x199F6, offset: 0x199F6, size: 0x8, addend: 0x0, symName: __ZNKSt3__16vectorIPK15ListenStatementNS_9allocatorIS3_EEE17__annotate_deleteB7v160006Ev, symObjAddr: 0x984C, symBinAddr: 0x10000D194, symSize: 0xB8 }
  - { offsetInCU: 0x19A1C, offset: 0x19A1C, size: 0x8, addend: 0x0, symName: __ZNSt3__116reverse_iteratorIPPK15ListenStatementEC1B7v160006ES4_, symObjAddr: 0x99EC, symBinAddr: 0x10000D334, symSize: 0x34 }
  - { offsetInCU: 0x19A54, offset: 0x19A54, size: 0x8, addend: 0x0, symName: __ZNKSt3__116reverse_iteratorIPPK15ListenStatementE4baseB7v160006Ev, symObjAddr: 0x9A20, symBinAddr: 0x10000D368, symSize: 0x18 }
  - { offsetInCU: 0x19A7A, offset: 0x19A7A, size: 0x8, addend: 0x0, symName: __ZNKSt3__16vectorIPK15ListenStatementNS_9allocatorIS3_EEE14__annotate_newB7v160006Em, symObjAddr: 0x9A74, symBinAddr: 0x10000D3BC, symSize: 0xAC }
  - { offsetInCU: 0x19AAF, offset: 0x19AAF, size: 0x8, addend: 0x0, symName: __ZNKSt3__16vectorIPK15ListenStatementNS_9allocatorIS3_EEE31__annotate_contiguous_containerB7v160006EPKvS8_S8_S8_, symObjAddr: 0x9B30, symBinAddr: 0x10000D478, symSize: 0x20 }
  - { offsetInCU: 0x19B01, offset: 0x19B01, size: 0x8, addend: 0x0, symName: __ZNKSt3__16vectorIPK15ListenStatementNS_9allocatorIS3_EEE4dataB7v160006Ev, symObjAddr: 0x9B50, symBinAddr: 0x10000D498, symSize: 0x28 }
  - { offsetInCU: 0x19B27, offset: 0x19B27, size: 0x8, addend: 0x0, symName: __ZNKSt3__116reverse_iteratorIPPK15ListenStatementEdeB7v160006Ev, symObjAddr: 0x9C10, symBinAddr: 0x10000D558, symSize: 0x28 }
  - { offsetInCU: 0x19B5B, offset: 0x19B5B, size: 0x8, addend: 0x0, symName: __ZNSt3__116reverse_iteratorIPPK15ListenStatementEppB7v160006Ev, symObjAddr: 0x9C38, symBinAddr: 0x10000D580, symSize: 0x20 }
  - { offsetInCU: 0x19B86, offset: 0x19B86, size: 0x8, addend: 0x0, symName: __ZNSt3__119__to_address_helperINS_16reverse_iteratorIPPK15ListenStatementEEvE6__callB7v160006ERKS6_, symObjAddr: 0x9CD0, symBinAddr: 0x10000D618, symSize: 0x4C }
  - { offsetInCU: 0x19BA9, offset: 0x19BA9, size: 0x8, addend: 0x0, symName: __ZNKSt3__116reverse_iteratorIPPK15ListenStatementEptB7v160006Ev, symObjAddr: 0x9D1C, symBinAddr: 0x10000D664, symSize: 0x24 }
  - { offsetInCU: 0x19BE8, offset: 0x19BE8, size: 0x8, addend: 0x0, symName: __ZNKSt3__111__move_loopINS_17_ClassicAlgPolicyEEclB7v160006INS_16reverse_iteratorIPPK15ListenStatementEES9_S9_EENS_4pairIT_T1_EESB_T0_SC_, symObjAddr: 0x9FD0, symBinAddr: 0x10000D918, symSize: 0xA0 }
  - { offsetInCU: 0x19C53, offset: 0x19C53, size: 0x8, addend: 0x0, symName: __ZNSt3__18_IterOpsINS_17_ClassicAlgPolicyEE11__iter_moveB7v160006IRNS_16reverse_iteratorIPPK15ListenStatementEEEENS_9enable_ifIXsr12is_referenceIDTdeclsr3stdE7declvalIRT_EEEEE5valueEDTclsr3stdE4movedeclsr3stdE7declvalISD_EEEEE4typeEOSC_, symObjAddr: 0xA1D0, symBinAddr: 0x10000DB18, symSize: 0x28 }
  - { offsetInCU: 0x19C7F, offset: 0x19C7F, size: 0x8, addend: 0x0, symName: __ZNSt3__18_IterOpsINS_17_ClassicAlgPolicyEE25__validate_iter_referenceB7v160006IRNS_16reverse_iteratorIPPK15ListenStatementEEEEvv, symObjAddr: 0xA1F8, symBinAddr: 0x10000DB40, symSize: 0x4 }
  - { offsetInCU: 0x19C9D, offset: 0x19C9D, size: 0x8, addend: 0x0, symName: __ZNSt3__118__unwrap_iter_implINS_16reverse_iteratorIPPK15ListenStatementEELb0EE8__unwrapB7v160006ES6_, symObjAddr: 0xA1FC, symBinAddr: 0x10000DB44, symSize: 0x24 }
  - { offsetInCU: 0x19CC0, offset: 0x19CC0, size: 0x8, addend: 0x0, symName: __ZNSt3__14pairINS_16reverse_iteratorIPPK15ListenStatementEES6_EC1B7v160006ERKS6_S9_, symObjAddr: 0xA220, symBinAddr: 0x10000DB68, symSize: 0x3C }
  - { offsetInCU: 0x19D06, offset: 0x19D06, size: 0x8, addend: 0x0, symName: __ZNSt3__14pairINS_16reverse_iteratorIPPK15ListenStatementEES6_EC2B7v160006ERKS6_S9_, symObjAddr: 0xA25C, symBinAddr: 0x10000DBA4, symSize: 0x34 }
  - { offsetInCU: 0x19D4C, offset: 0x19D4C, size: 0x8, addend: 0x0, symName: __ZNSt3__118__unwrap_iter_implINS_16reverse_iteratorIPPK15ListenStatementEELb0EE8__rewrapB7v160006ES6_S6_, symObjAddr: 0xA290, symBinAddr: 0x10000DBD8, symSize: 0x2C }
  - { offsetInCU: 0x19D7A, offset: 0x19D7A, size: 0x8, addend: 0x0, symName: __ZNSt3__116reverse_iteratorIPPK15ListenStatementEC2B7v160006ES4_, symObjAddr: 0xA2BC, symBinAddr: 0x10000DC04, symSize: 0x28 }
  - { offsetInCU: 0x19DB2, offset: 0x19DB2, size: 0x8, addend: 0x0, symName: __ZNSt3__114__split_bufferIPK15ListenStatementRNS_9allocatorIS3_EEED2Ev, symObjAddr: 0xA2E4, symBinAddr: 0x10000DC2C, symSize: 0x80 }
  - { offsetInCU: 0x19DDE, offset: 0x19DDE, size: 0x8, addend: 0x0, symName: __ZNSt3__114__split_bufferIPK15ListenStatementRNS_9allocatorIS3_EEE5clearB7v160006Ev, symObjAddr: 0xA364, symBinAddr: 0x10000DCAC, symSize: 0x28 }
  - { offsetInCU: 0x19E04, offset: 0x19E04, size: 0x8, addend: 0x0, symName: __ZNSt3__116allocator_traitsINS_9allocatorIPK15ListenStatementEEE10deallocateB7v160006ERS5_PS4_m, symObjAddr: 0xA38C, symBinAddr: 0x10000DCD4, symSize: 0x34 }
  - { offsetInCU: 0x19E46, offset: 0x19E46, size: 0x8, addend: 0x0, symName: __ZNKSt3__114__split_bufferIPK15ListenStatementRNS_9allocatorIS3_EEE8capacityB7v160006Ev, symObjAddr: 0xA3C0, symBinAddr: 0x10000DD08, symSize: 0x40 }
  - { offsetInCU: 0x19E6C, offset: 0x19E6C, size: 0x8, addend: 0x0, symName: __ZNSt3__114__split_bufferIPK15ListenStatementRNS_9allocatorIS3_EEE17__destruct_at_endB7v160006EPS3_, symObjAddr: 0xA400, symBinAddr: 0x10000DD48, symSize: 0x2C }
  - { offsetInCU: 0x19EA0, offset: 0x19EA0, size: 0x8, addend: 0x0, symName: __ZNSt3__114__split_bufferIPK15ListenStatementRNS_9allocatorIS3_EEE17__destruct_at_endB7v160006EPS3_NS_17integral_constantIbLb0EEE, symObjAddr: 0xA42C, symBinAddr: 0x10000DD74, symSize: 0x94 }
  - { offsetInCU: 0x19EE1, offset: 0x19EE1, size: 0x8, addend: 0x0, symName: __ZNSt3__116allocator_traitsINS_9allocatorIPK15ListenStatementEEE7destroyB7v160006IS4_vEEvRS5_PT_, symObjAddr: 0xA4C0, symBinAddr: 0x10000DE08, symSize: 0x2C }
  - { offsetInCU: 0x19F1E, offset: 0x19F1E, size: 0x8, addend: 0x0, symName: __ZNSt3__19allocatorIPK15ListenStatementE7destroyB7v160006EPS3_, symObjAddr: 0xA4EC, symBinAddr: 0x10000DE34, symSize: 0x14 }
  - { offsetInCU: 0x19F52, offset: 0x19F52, size: 0x8, addend: 0x0, symName: __ZNSt3__19allocatorIPK15ListenStatementE10deallocateB7v160006EPS3_m, symObjAddr: 0xA500, symBinAddr: 0x10000DE48, symSize: 0x70 }
  - { offsetInCU: 0x19F94, offset: 0x19F94, size: 0x8, addend: 0x0, symName: __ZNKSt3__114__split_bufferIPK15ListenStatementRNS_9allocatorIS3_EEE9__end_capB7v160006Ev, symObjAddr: 0xA570, symBinAddr: 0x10000DEB8, symSize: 0x28 }
  - { offsetInCU: 0x19FBA, offset: 0x19FBA, size: 0x8, addend: 0x0, symName: __ZNKSt3__117__compressed_pairIPPK15ListenStatementRNS_9allocatorIS3_EEE5firstB7v160006Ev, symObjAddr: 0xA598, symBinAddr: 0x10000DEE0, symSize: 0x24 }
  - { offsetInCU: 0x19FE0, offset: 0x19FE0, size: 0x8, addend: 0x0, symName: __ZNSt3__16vectorIPK17LocationStatementNS_9allocatorIS3_EEE9__end_capB7v160006Ev, symObjAddr: 0xA5BC, symBinAddr: 0x10000DF04, symSize: 0x28 }
  - { offsetInCU: 0x1A00B, offset: 0x1A00B, size: 0x8, addend: 0x0, symName: __ZNSt3__16vectorIPK17LocationStatementNS_9allocatorIS3_EEE22__construct_one_at_endB7v160006IJS3_EEEvDpOT_, symObjAddr: 0xA5E4, symBinAddr: 0x10000DF2C, symSize: 0x98 }
  - { offsetInCU: 0x1A05A, offset: 0x1A05A, size: 0x8, addend: 0x0, symName: __ZNSt3__16vectorIPK17LocationStatementNS_9allocatorIS3_EEE21__push_back_slow_pathIS3_EEvOT_, symObjAddr: 0xA67C, symBinAddr: 0x10000DFC4, symSize: 0xE0 }
  - { offsetInCU: 0x1A0B8, offset: 0x1A0B8, size: 0x8, addend: 0x0, symName: __ZNSt3__117__compressed_pairIPPK17LocationStatementNS_9allocatorIS3_EEE5firstB7v160006Ev, symObjAddr: 0xA75C, symBinAddr: 0x10000E0A4, symSize: 0x24 }
  - { offsetInCU: 0x1A0DE, offset: 0x1A0DE, size: 0x8, addend: 0x0, symName: __ZNSt3__122__compressed_pair_elemIPPK17LocationStatementLi0ELb0EE5__getB7v160006Ev, symObjAddr: 0xA780, symBinAddr: 0x10000E0C8, symSize: 0x14 }
  - { offsetInCU: 0x1A11D, offset: 0x1A11D, size: 0x8, addend: 0x0, symName: __ZNSt3__16vectorIPK17LocationStatementNS_9allocatorIS3_EEE21_ConstructTransactionC1B7v160006ERS6_m, symObjAddr: 0xA794, symBinAddr: 0x10000E0DC, symSize: 0x3C }
  - { offsetInCU: 0x1A165, offset: 0x1A165, size: 0x8, addend: 0x0, symName: __ZNSt3__116allocator_traitsINS_9allocatorIPK17LocationStatementEEE9constructB7v160006IS4_JS4_EvEEvRS5_PT_DpOT0_, symObjAddr: 0xA7D0, symBinAddr: 0x10000E118, symSize: 0x34 }
  - { offsetInCU: 0x1A1BC, offset: 0x1A1BC, size: 0x8, addend: 0x0, symName: __ZNSt3__16vectorIPK17LocationStatementNS_9allocatorIS3_EEE7__allocB7v160006Ev, symObjAddr: 0xA804, symBinAddr: 0x10000E14C, symSize: 0x28 }
  - { offsetInCU: 0x1A1E2, offset: 0x1A1E2, size: 0x8, addend: 0x0, symName: __ZNSt3__16vectorIPK17LocationStatementNS_9allocatorIS3_EEE21_ConstructTransactionD1B7v160006Ev, symObjAddr: 0xA840, symBinAddr: 0x10000E188, symSize: 0x2C }
  - { offsetInCU: 0x1A20C, offset: 0x1A20C, size: 0x8, addend: 0x0, symName: __ZNSt3__16vectorIPK17LocationStatementNS_9allocatorIS3_EEE21_ConstructTransactionC2B7v160006ERS6_m, symObjAddr: 0xA86C, symBinAddr: 0x10000E1B4, symSize: 0x44 }
  - { offsetInCU: 0x1A254, offset: 0x1A254, size: 0x8, addend: 0x0, symName: __ZNSt3__19allocatorIPK17LocationStatementE9constructB7v160006IS3_JS3_EEEvPT_DpOT0_, symObjAddr: 0xA8B0, symBinAddr: 0x10000E1F8, symSize: 0x28 }
  - { offsetInCU: 0x1A2AA, offset: 0x1A2AA, size: 0x8, addend: 0x0, symName: __ZNSt3__117__compressed_pairIPPK17LocationStatementNS_9allocatorIS3_EEE6secondB7v160006Ev, symObjAddr: 0xA8D8, symBinAddr: 0x10000E220, symSize: 0x24 }
  - { offsetInCU: 0x1A2D0, offset: 0x1A2D0, size: 0x8, addend: 0x0, symName: __ZNSt3__122__compressed_pair_elemINS_9allocatorIPK17LocationStatementEELi1ELb1EE5__getB7v160006Ev, symObjAddr: 0xA8FC, symBinAddr: 0x10000E244, symSize: 0x14 }
  - { offsetInCU: 0x1A2F6, offset: 0x1A2F6, size: 0x8, addend: 0x0, symName: __ZNSt3__16vectorIPK17LocationStatementNS_9allocatorIS3_EEE21_ConstructTransactionD2B7v160006Ev, symObjAddr: 0xA910, symBinAddr: 0x10000E258, symSize: 0x20 }
  - { offsetInCU: 0x1A320, offset: 0x1A320, size: 0x8, addend: 0x0, symName: __ZNKSt3__16vectorIPK17LocationStatementNS_9allocatorIS3_EEE11__recommendB7v160006Em, symObjAddr: 0xA930, symBinAddr: 0x10000E278, symSize: 0xB4 }
  - { offsetInCU: 0x1A375, offset: 0x1A375, size: 0x8, addend: 0x0, symName: __ZNKSt3__16vectorIPK17LocationStatementNS_9allocatorIS3_EEE4sizeB7v160006Ev, symObjAddr: 0xA9E4, symBinAddr: 0x10000E32C, symSize: 0x28 }
  - { offsetInCU: 0x1A39B, offset: 0x1A39B, size: 0x8, addend: 0x0, symName: __ZNSt3__114__split_bufferIPK17LocationStatementRNS_9allocatorIS3_EEEC1EmmS6_, symObjAddr: 0xAA0C, symBinAddr: 0x10000E354, symSize: 0x44 }
  - { offsetInCU: 0x1A3F1, offset: 0x1A3F1, size: 0x8, addend: 0x0, symName: __ZNSt3__114__split_bufferIPK17LocationStatementRNS_9allocatorIS3_EEED1Ev, symObjAddr: 0xAB68, symBinAddr: 0x10000E4B0, symSize: 0x2C }
  - { offsetInCU: 0x1A41D, offset: 0x1A41D, size: 0x8, addend: 0x0, symName: __ZNKSt3__16vectorIPK17LocationStatementNS_9allocatorIS3_EEE8max_sizeEv, symObjAddr: 0xAB94, symBinAddr: 0x10000E4DC, symSize: 0x74 }
  - { offsetInCU: 0x1A445, offset: 0x1A445, size: 0x8, addend: 0x0, symName: __ZNKSt3__16vectorIPK17LocationStatementNS_9allocatorIS3_EEE20__throw_length_errorB7v160006Ev, symObjAddr: 0xAC08, symBinAddr: 0x10000E550, symSize: 0x1C }
  - { offsetInCU: 0x1A46B, offset: 0x1A46B, size: 0x8, addend: 0x0, symName: __ZNKSt3__16vectorIPK17LocationStatementNS_9allocatorIS3_EEE8capacityB7v160006Ev, symObjAddr: 0xAC24, symBinAddr: 0x10000E56C, symSize: 0x40 }
  - { offsetInCU: 0x1A49B, offset: 0x1A49B, size: 0x8, addend: 0x0, symName: __ZNSt3__116allocator_traitsINS_9allocatorIPK17LocationStatementEEE8max_sizeB7v160006IS5_vEEmRKS5_, symObjAddr: 0xAC64, symBinAddr: 0x10000E5AC, symSize: 0x24 }
  - { offsetInCU: 0x1A4C9, offset: 0x1A4C9, size: 0x8, addend: 0x0, symName: __ZNKSt3__16vectorIPK17LocationStatementNS_9allocatorIS3_EEE7__allocB7v160006Ev, symObjAddr: 0xAC88, symBinAddr: 0x10000E5D0, symSize: 0x28 }
  - { offsetInCU: 0x1A4EF, offset: 0x1A4EF, size: 0x8, addend: 0x0, symName: __ZNKSt3__19allocatorIPK17LocationStatementE8max_sizeB7v160006Ev, symObjAddr: 0xACB0, symBinAddr: 0x10000E5F8, symSize: 0x14 }
  - { offsetInCU: 0x1A515, offset: 0x1A515, size: 0x8, addend: 0x0, symName: __ZNKSt3__117__compressed_pairIPPK17LocationStatementNS_9allocatorIS3_EEE6secondB7v160006Ev, symObjAddr: 0xACC4, symBinAddr: 0x10000E60C, symSize: 0x24 }
  - { offsetInCU: 0x1A53B, offset: 0x1A53B, size: 0x8, addend: 0x0, symName: __ZNKSt3__122__compressed_pair_elemINS_9allocatorIPK17LocationStatementEELi1ELb1EE5__getB7v160006Ev, symObjAddr: 0xACE8, symBinAddr: 0x10000E630, symSize: 0x14 }
  - { offsetInCU: 0x1A561, offset: 0x1A561, size: 0x8, addend: 0x0, symName: __ZNKSt3__16vectorIPK17LocationStatementNS_9allocatorIS3_EEE9__end_capB7v160006Ev, symObjAddr: 0xACFC, symBinAddr: 0x10000E644, symSize: 0x28 }
  - { offsetInCU: 0x1A587, offset: 0x1A587, size: 0x8, addend: 0x0, symName: __ZNKSt3__117__compressed_pairIPPK17LocationStatementNS_9allocatorIS3_EEE5firstB7v160006Ev, symObjAddr: 0xAD24, symBinAddr: 0x10000E66C, symSize: 0x24 }
  - { offsetInCU: 0x1A5AD, offset: 0x1A5AD, size: 0x8, addend: 0x0, symName: __ZNKSt3__122__compressed_pair_elemIPPK17LocationStatementLi0ELb0EE5__getB7v160006Ev, symObjAddr: 0xAD48, symBinAddr: 0x10000E690, symSize: 0x14 }
  - { offsetInCU: 0x1A5D3, offset: 0x1A5D3, size: 0x8, addend: 0x0, symName: __ZNSt3__114__split_bufferIPK17LocationStatementRNS_9allocatorIS3_EEEC2EmmS6_, symObjAddr: 0xAD5C, symBinAddr: 0x10000E6A4, symSize: 0xD4 }
  - { offsetInCU: 0x1A646, offset: 0x1A646, size: 0x8, addend: 0x0, symName: __ZNSt3__117__compressed_pairIPPK17LocationStatementRNS_9allocatorIS3_EEEC1B7v160006IDnS7_EEOT_OT0_, symObjAddr: 0xAE30, symBinAddr: 0x10000E778, symSize: 0x3C }
  - { offsetInCU: 0x1A69E, offset: 0x1A69E, size: 0x8, addend: 0x0, symName: __ZNSt3__114__split_bufferIPK17LocationStatementRNS_9allocatorIS3_EEE7__allocB7v160006Ev, symObjAddr: 0xAEAC, symBinAddr: 0x10000E7F4, symSize: 0x28 }
  - { offsetInCU: 0x1A6C4, offset: 0x1A6C4, size: 0x8, addend: 0x0, symName: __ZNSt3__114__split_bufferIPK17LocationStatementRNS_9allocatorIS3_EEE9__end_capB7v160006Ev, symObjAddr: 0xAED4, symBinAddr: 0x10000E81C, symSize: 0x28 }
  - { offsetInCU: 0x1A6EA, offset: 0x1A6EA, size: 0x8, addend: 0x0, symName: __ZNSt3__117__compressed_pairIPPK17LocationStatementRNS_9allocatorIS3_EEEC2B7v160006IDnS7_EEOT_OT0_, symObjAddr: 0xAEFC, symBinAddr: 0x10000E844, symSize: 0x48 }
  - { offsetInCU: 0x1A742, offset: 0x1A742, size: 0x8, addend: 0x0, symName: __ZNSt3__122__compressed_pair_elemIPPK17LocationStatementLi0ELb0EEC2B7v160006IDnvEEOT_, symObjAddr: 0xAF44, symBinAddr: 0x10000E88C, symSize: 0x1C }
  - { offsetInCU: 0x1A784, offset: 0x1A784, size: 0x8, addend: 0x0, symName: __ZNSt3__122__compressed_pair_elemIRNS_9allocatorIPK17LocationStatementEELi1ELb0EEC2B7v160006IS6_vEEOT_, symObjAddr: 0xAF60, symBinAddr: 0x10000E8A8, symSize: 0x20 }
  - { offsetInCU: 0x1A7C6, offset: 0x1A7C6, size: 0x8, addend: 0x0, symName: __ZNSt3__19allocatorIPK17LocationStatementE8allocateB7v160006Em, symObjAddr: 0xAF80, symBinAddr: 0x10000E8C8, symSize: 0x84 }
  - { offsetInCU: 0x1A7FA, offset: 0x1A7FA, size: 0x8, addend: 0x0, symName: __ZNSt3__117__compressed_pairIPPK17LocationStatementRNS_9allocatorIS3_EEE6secondB7v160006Ev, symObjAddr: 0xB004, symBinAddr: 0x10000E94C, symSize: 0x28 }
  - { offsetInCU: 0x1A820, offset: 0x1A820, size: 0x8, addend: 0x0, symName: __ZNSt3__122__compressed_pair_elemIRNS_9allocatorIPK17LocationStatementEELi1ELb0EE5__getB7v160006Ev, symObjAddr: 0xB02C, symBinAddr: 0x10000E974, symSize: 0x18 }
  - { offsetInCU: 0x1A846, offset: 0x1A846, size: 0x8, addend: 0x0, symName: __ZNSt3__117__compressed_pairIPPK17LocationStatementRNS_9allocatorIS3_EEE5firstB7v160006Ev, symObjAddr: 0xB044, symBinAddr: 0x10000E98C, symSize: 0x24 }
  - { offsetInCU: 0x1A86C, offset: 0x1A86C, size: 0x8, addend: 0x0, symName: __ZNKSt3__16vectorIPK17LocationStatementNS_9allocatorIS3_EEE17__annotate_deleteB7v160006Ev, symObjAddr: 0xB068, symBinAddr: 0x10000E9B0, symSize: 0xB8 }
  - { offsetInCU: 0x1A892, offset: 0x1A892, size: 0x8, addend: 0x0, symName: __ZNSt3__116reverse_iteratorIPPK17LocationStatementEC1B7v160006ES4_, symObjAddr: 0xB208, symBinAddr: 0x10000EB50, symSize: 0x34 }
  - { offsetInCU: 0x1A8CA, offset: 0x1A8CA, size: 0x8, addend: 0x0, symName: __ZNKSt3__116reverse_iteratorIPPK17LocationStatementE4baseB7v160006Ev, symObjAddr: 0xB23C, symBinAddr: 0x10000EB84, symSize: 0x18 }
  - { offsetInCU: 0x1A8F0, offset: 0x1A8F0, size: 0x8, addend: 0x0, symName: __ZNKSt3__16vectorIPK17LocationStatementNS_9allocatorIS3_EEE14__annotate_newB7v160006Em, symObjAddr: 0xB290, symBinAddr: 0x10000EBD8, symSize: 0xAC }
  - { offsetInCU: 0x1A925, offset: 0x1A925, size: 0x8, addend: 0x0, symName: __ZNKSt3__16vectorIPK17LocationStatementNS_9allocatorIS3_EEE31__annotate_contiguous_containerB7v160006EPKvS8_S8_S8_, symObjAddr: 0xB34C, symBinAddr: 0x10000EC94, symSize: 0x20 }
  - { offsetInCU: 0x1A977, offset: 0x1A977, size: 0x8, addend: 0x0, symName: __ZNKSt3__16vectorIPK17LocationStatementNS_9allocatorIS3_EEE4dataB7v160006Ev, symObjAddr: 0xB36C, symBinAddr: 0x10000ECB4, symSize: 0x28 }
  - { offsetInCU: 0x1A99D, offset: 0x1A99D, size: 0x8, addend: 0x0, symName: __ZNKSt3__116reverse_iteratorIPPK17LocationStatementEdeB7v160006Ev, symObjAddr: 0xB42C, symBinAddr: 0x10000ED74, symSize: 0x28 }
  - { offsetInCU: 0x1A9D1, offset: 0x1A9D1, size: 0x8, addend: 0x0, symName: __ZNSt3__116reverse_iteratorIPPK17LocationStatementEppB7v160006Ev, symObjAddr: 0xB454, symBinAddr: 0x10000ED9C, symSize: 0x20 }
  - { offsetInCU: 0x1A9FC, offset: 0x1A9FC, size: 0x8, addend: 0x0, symName: __ZNSt3__119__to_address_helperINS_16reverse_iteratorIPPK17LocationStatementEEvE6__callB7v160006ERKS6_, symObjAddr: 0xB4EC, symBinAddr: 0x10000EE34, symSize: 0x4C }
  - { offsetInCU: 0x1AA1F, offset: 0x1AA1F, size: 0x8, addend: 0x0, symName: __ZNKSt3__116reverse_iteratorIPPK17LocationStatementEptB7v160006Ev, symObjAddr: 0xB538, symBinAddr: 0x10000EE80, symSize: 0x24 }
  - { offsetInCU: 0x1AA5E, offset: 0x1AA5E, size: 0x8, addend: 0x0, symName: __ZNKSt3__111__move_loopINS_17_ClassicAlgPolicyEEclB7v160006INS_16reverse_iteratorIPPK17LocationStatementEES9_S9_EENS_4pairIT_T1_EESB_T0_SC_, symObjAddr: 0xB7EC, symBinAddr: 0x10000F134, symSize: 0xA0 }
  - { offsetInCU: 0x1AAC9, offset: 0x1AAC9, size: 0x8, addend: 0x0, symName: __ZNSt3__18_IterOpsINS_17_ClassicAlgPolicyEE11__iter_moveB7v160006IRNS_16reverse_iteratorIPPK17LocationStatementEEEENS_9enable_ifIXsr12is_referenceIDTdeclsr3stdE7declvalIRT_EEEEE5valueEDTclsr3stdE4movedeclsr3stdE7declvalISD_EEEEE4typeEOSC_, symObjAddr: 0xB9EC, symBinAddr: 0x10000F334, symSize: 0x28 }
  - { offsetInCU: 0x1AAF5, offset: 0x1AAF5, size: 0x8, addend: 0x0, symName: __ZNSt3__18_IterOpsINS_17_ClassicAlgPolicyEE25__validate_iter_referenceB7v160006IRNS_16reverse_iteratorIPPK17LocationStatementEEEEvv, symObjAddr: 0xBA14, symBinAddr: 0x10000F35C, symSize: 0x4 }
  - { offsetInCU: 0x1AB13, offset: 0x1AB13, size: 0x8, addend: 0x0, symName: __ZNSt3__118__unwrap_iter_implINS_16reverse_iteratorIPPK17LocationStatementEELb0EE8__unwrapB7v160006ES6_, symObjAddr: 0xBA18, symBinAddr: 0x10000F360, symSize: 0x24 }
  - { offsetInCU: 0x1AB36, offset: 0x1AB36, size: 0x8, addend: 0x0, symName: __ZNSt3__14pairINS_16reverse_iteratorIPPK17LocationStatementEES6_EC1B7v160006ERKS6_S9_, symObjAddr: 0xBA3C, symBinAddr: 0x10000F384, symSize: 0x3C }
  - { offsetInCU: 0x1AB7C, offset: 0x1AB7C, size: 0x8, addend: 0x0, symName: __ZNSt3__14pairINS_16reverse_iteratorIPPK17LocationStatementEES6_EC2B7v160006ERKS6_S9_, symObjAddr: 0xBA78, symBinAddr: 0x10000F3C0, symSize: 0x34 }
  - { offsetInCU: 0x1ABC2, offset: 0x1ABC2, size: 0x8, addend: 0x0, symName: __ZNSt3__118__unwrap_iter_implINS_16reverse_iteratorIPPK17LocationStatementEELb0EE8__rewrapB7v160006ES6_S6_, symObjAddr: 0xBAAC, symBinAddr: 0x10000F3F4, symSize: 0x2C }
  - { offsetInCU: 0x1ABF0, offset: 0x1ABF0, size: 0x8, addend: 0x0, symName: __ZNSt3__116reverse_iteratorIPPK17LocationStatementEC2B7v160006ES4_, symObjAddr: 0xBAD8, symBinAddr: 0x10000F420, symSize: 0x28 }
  - { offsetInCU: 0x1AC28, offset: 0x1AC28, size: 0x8, addend: 0x0, symName: __ZNSt3__114__split_bufferIPK17LocationStatementRNS_9allocatorIS3_EEED2Ev, symObjAddr: 0xBB00, symBinAddr: 0x10000F448, symSize: 0x80 }
  - { offsetInCU: 0x1AC54, offset: 0x1AC54, size: 0x8, addend: 0x0, symName: __ZNSt3__114__split_bufferIPK17LocationStatementRNS_9allocatorIS3_EEE5clearB7v160006Ev, symObjAddr: 0xBB80, symBinAddr: 0x10000F4C8, symSize: 0x28 }
  - { offsetInCU: 0x1AC7A, offset: 0x1AC7A, size: 0x8, addend: 0x0, symName: __ZNSt3__116allocator_traitsINS_9allocatorIPK17LocationStatementEEE10deallocateB7v160006ERS5_PS4_m, symObjAddr: 0xBBA8, symBinAddr: 0x10000F4F0, symSize: 0x34 }
  - { offsetInCU: 0x1ACBC, offset: 0x1ACBC, size: 0x8, addend: 0x0, symName: __ZNKSt3__114__split_bufferIPK17LocationStatementRNS_9allocatorIS3_EEE8capacityB7v160006Ev, symObjAddr: 0xBBDC, symBinAddr: 0x10000F524, symSize: 0x40 }
  - { offsetInCU: 0x1ACE2, offset: 0x1ACE2, size: 0x8, addend: 0x0, symName: __ZNSt3__114__split_bufferIPK17LocationStatementRNS_9allocatorIS3_EEE17__destruct_at_endB7v160006EPS3_, symObjAddr: 0xBC1C, symBinAddr: 0x10000F564, symSize: 0x2C }
  - { offsetInCU: 0x1AD16, offset: 0x1AD16, size: 0x8, addend: 0x0, symName: __ZNSt3__114__split_bufferIPK17LocationStatementRNS_9allocatorIS3_EEE17__destruct_at_endB7v160006EPS3_NS_17integral_constantIbLb0EEE, symObjAddr: 0xBC48, symBinAddr: 0x10000F590, symSize: 0x94 }
  - { offsetInCU: 0x1AD57, offset: 0x1AD57, size: 0x8, addend: 0x0, symName: __ZNSt3__116allocator_traitsINS_9allocatorIPK17LocationStatementEEE7destroyB7v160006IS4_vEEvRS5_PT_, symObjAddr: 0xBCDC, symBinAddr: 0x10000F624, symSize: 0x2C }
  - { offsetInCU: 0x1AD94, offset: 0x1AD94, size: 0x8, addend: 0x0, symName: __ZNSt3__19allocatorIPK17LocationStatementE7destroyB7v160006EPS3_, symObjAddr: 0xBD08, symBinAddr: 0x10000F650, symSize: 0x14 }
  - { offsetInCU: 0x1ADC8, offset: 0x1ADC8, size: 0x8, addend: 0x0, symName: __ZNSt3__19allocatorIPK17LocationStatementE10deallocateB7v160006EPS3_m, symObjAddr: 0xBD1C, symBinAddr: 0x10000F664, symSize: 0x70 }
  - { offsetInCU: 0x1AE0A, offset: 0x1AE0A, size: 0x8, addend: 0x0, symName: __ZNKSt3__114__split_bufferIPK17LocationStatementRNS_9allocatorIS3_EEE9__end_capB7v160006Ev, symObjAddr: 0xBD8C, symBinAddr: 0x10000F6D4, symSize: 0x28 }
  - { offsetInCU: 0x1AE30, offset: 0x1AE30, size: 0x8, addend: 0x0, symName: __ZNKSt3__117__compressed_pairIPPK17LocationStatementRNS_9allocatorIS3_EEE5firstB7v160006Ev, symObjAddr: 0xBDB4, symBinAddr: 0x10000F6FC, symSize: 0x24 }
  - { offsetInCU: 0x26, offset: 0x1B0C4, size: 0x8, addend: 0x0, symName: __ZN10Identifier14statement_nodeEv, symObjAddr: 0x0, symBinAddr: 0x10000F720, symSize: 0x10 }
  - { offsetInCU: 0x4921, offset: 0x1F9BF, size: 0x8, addend: 0x0, symName: __ZN10Identifier14statement_nodeEv, symObjAddr: 0x0, symBinAddr: 0x10000F720, symSize: 0x10 }
  - { offsetInCU: 0x4949, offset: 0x1F9E7, size: 0x8, addend: 0x0, symName: __ZN10Identifier13token_literalEv, symObjAddr: 0x10, symBinAddr: 0x10000F730, symSize: 0x30 }
  - { offsetInCU: 0x4840, offset: 0x24254, size: 0x8, addend: 0x0, symName: __ZN15ListenStatement14statement_nodeEv, symObjAddr: 0x0, symBinAddr: 0x10000F760, symSize: 0x10 }
  - { offsetInCU: 0x4868, offset: 0x2427C, size: 0x8, addend: 0x0, symName: __ZN15ListenStatementC2Ev, symObjAddr: 0x10, symBinAddr: 0x10000F770, symSize: 0x80 }
  - { offsetInCU: 0x4894, offset: 0x242A8, size: 0x8, addend: 0x0, symName: __ZN10IdentifierC1Ev, symObjAddr: 0x90, symBinAddr: 0x10000F7F0, symSize: 0x2C }
  - { offsetInCU: 0x48C0, offset: 0x242D4, size: 0x8, addend: 0x0, symName: __ZN15ListenStatementC1Ev, symObjAddr: 0xC8, symBinAddr: 0x10000F81C, symSize: 0x2C }
  - { offsetInCU: 0x48EC, offset: 0x24300, size: 0x8, addend: 0x0, symName: __ZN15ListenStatement13token_literalEv, symObjAddr: 0xF4, symBinAddr: 0x10000F848, symSize: 0x30 }
  - { offsetInCU: 0x4914, offset: 0x24328, size: 0x8, addend: 0x0, symName: __ZN10IdentifierC2Ev, symObjAddr: 0x124, symBinAddr: 0x10000F878, symSize: 0x30 }
  - { offsetInCU: 0x5450, offset: 0x297AE, size: 0x8, addend: 0x0, symName: __ZN17LocationStatementC2Ev, symObjAddr: 0x0, symBinAddr: 0x10000F8A8, symSize: 0x138 }
  - { offsetInCU: 0x547C, offset: 0x297DA, size: 0x8, addend: 0x0, symName: __ZN10IdentifierD1Ev, symObjAddr: 0x1F4, symBinAddr: 0x10000F9E0, symSize: 0x2C }
  - { offsetInCU: 0x54A8, offset: 0x29806, size: 0x8, addend: 0x0, symName: __ZN17LocationStatementC1Ev, symObjAddr: 0x220, symBinAddr: 0x10000FA0C, symSize: 0x2C }
  - { offsetInCU: 0x54D4, offset: 0x29832, size: 0x8, addend: 0x0, symName: __ZN17LocationStatementD2Ev, symObjAddr: 0x24C, symBinAddr: 0x10000FA38, symSize: 0x134 }
  - { offsetInCU: 0x5500, offset: 0x2985E, size: 0x8, addend: 0x0, symName: __ZN17LocationStatementD1Ev, symObjAddr: 0x380, symBinAddr: 0x10000FB6C, symSize: 0x2C }
  - { offsetInCU: 0x552C, offset: 0x2988A, size: 0x8, addend: 0x0, symName: __ZN10IdentifierD2Ev, symObjAddr: 0x3DC, symBinAddr: 0x10000FB98, symSize: 0x30 }
  - { offsetInCU: 0x5E45, offset: 0x2F705, size: 0x8, addend: 0x0, symName: __ZNSt3__119__debug_db_insert_cB7v160006INS_6vectorIPK17LocationStatementNS_9allocatorIS4_EEEEEEvPT_, symObjAddr: 0xC2C, symBinAddr: 0x100010154, symSize: 0x10 }
  - { offsetInCU: 0x5E76, offset: 0x2F736, size: 0x8, addend: 0x0, symName: __ZNSt3__119__debug_db_insert_cB7v160006INS_6vectorIPK15ListenStatementNS_9allocatorIS4_EEEEEEvPT_, symObjAddr: 0xD8C, symBinAddr: 0x100010298, symSize: 0x10 }
  - { offsetInCU: 0x5EA7, offset: 0x2F767, size: 0x8, addend: 0x0, symName: __ZNSt3__118__debug_db_erase_cB7v160006INS_6vectorIPK17LocationStatementNS_9allocatorIS4_EEEEEEvPT_, symObjAddr: 0x13F0, symBinAddr: 0x10001079C, symSize: 0x10 }
  - { offsetInCU: 0x5ED8, offset: 0x2F798, size: 0x8, addend: 0x0, symName: __ZNSt3__118__debug_db_erase_cB7v160006INS_6vectorIPK15ListenStatementNS_9allocatorIS4_EEEEEEvPT_, symObjAddr: 0x1990, symBinAddr: 0x1000109A0, symSize: 0x10 }
  - { offsetInCU: 0x8622, offset: 0x31EE2, size: 0x8, addend: 0x0, symName: __ZN15ServerStatementC2Ev, symObjAddr: 0x0, symBinAddr: 0x10000FBC8, symSize: 0x1D4 }
  - { offsetInCU: 0x864E, offset: 0x31F0E, size: 0x8, addend: 0x0, symName: __ZNSt3__16vectorIPK17LocationStatementNS_9allocatorIS3_EEEC1B7v160006Ev, symObjAddr: 0x22C, symBinAddr: 0x10000FD9C, symSize: 0x2C }
  - { offsetInCU: 0x8678, offset: 0x31F38, size: 0x8, addend: 0x0, symName: __ZNSt3__16vectorIPK15ListenStatementNS_9allocatorIS3_EEEC1B7v160006Ev, symObjAddr: 0x258, symBinAddr: 0x10000FDC8, symSize: 0x2C }
  - { offsetInCU: 0x86A2, offset: 0x31F62, size: 0x8, addend: 0x0, symName: __ZNSt3__13mapINS_12basic_stringIcNS_11char_traitsIcEENS_9allocatorIcEEEES6_NS_4lessIS6_EENS4_INS_4pairIKS6_S6_EEEEEC1B7v160006Ev, symObjAddr: 0x284, symBinAddr: 0x10000FDF4, symSize: 0x2C }
  - { offsetInCU: 0x86CC, offset: 0x31F8C, size: 0x8, addend: 0x0, symName: __ZNSt3__16vectorIPK15ListenStatementNS_9allocatorIS3_EEED1B7v160006Ev, symObjAddr: 0x2BC, symBinAddr: 0x10000FE20, symSize: 0x2C }
  - { offsetInCU: 0x86F6, offset: 0x31FB6, size: 0x8, addend: 0x0, symName: __ZNSt3__16vectorIPK17LocationStatementNS_9allocatorIS3_EEED1B7v160006Ev, symObjAddr: 0x2E8, symBinAddr: 0x10000FE4C, symSize: 0x2C }
  - { offsetInCU: 0x8720, offset: 0x31FE0, size: 0x8, addend: 0x0, symName: __ZN15ServerStatementC1Ev, symObjAddr: 0x340, symBinAddr: 0x10000FE78, symSize: 0x2C }
  - { offsetInCU: 0x874C, offset: 0x3200C, size: 0x8, addend: 0x0, symName: __ZN15ServerStatementD2Ev, symObjAddr: 0x36C, symBinAddr: 0x10000FEA4, symSize: 0x1D0 }
  - { offsetInCU: 0x8778, offset: 0x32038, size: 0x8, addend: 0x0, symName: __ZNSt3__13mapINS_12basic_stringIcNS_11char_traitsIcEENS_9allocatorIcEEEES6_NS_4lessIS6_EENS4_INS_4pairIKS6_S6_EEEEED1B7v160006Ev, symObjAddr: 0x53C, symBinAddr: 0x100010074, symSize: 0x2C }
  - { offsetInCU: 0x87A2, offset: 0x32062, size: 0x8, addend: 0x0, symName: __ZN15ServerStatementD1Ev, symObjAddr: 0x568, symBinAddr: 0x1000100A0, symSize: 0x2C }
  - { offsetInCU: 0x87D3, offset: 0x32093, size: 0x8, addend: 0x0, symName: __ZNSt3__16vectorIPK17LocationStatementNS_9allocatorIS3_EEEC2B7v160006Ev, symObjAddr: 0xBA4, symBinAddr: 0x1000100CC, symSize: 0x4C }
  - { offsetInCU: 0x8802, offset: 0x320C2, size: 0x8, addend: 0x0, symName: __ZNSt3__117__compressed_pairIPPK17LocationStatementNS_9allocatorIS3_EEEC1B7v160006IDnNS_18__default_init_tagEEEOT_OT0_, symObjAddr: 0xBF0, symBinAddr: 0x100010118, symSize: 0x3C }
  - { offsetInCU: 0x885A, offset: 0x3211A, size: 0x8, addend: 0x0, symName: __ZNSt3__117__compressed_pairIPPK17LocationStatementNS_9allocatorIS3_EEEC2B7v160006IDnNS_18__default_init_tagEEEOT_OT0_, symObjAddr: 0xC3C, symBinAddr: 0x100010164, symSize: 0x40 }
  - { offsetInCU: 0x88B2, offset: 0x32172, size: 0x8, addend: 0x0, symName: __ZNSt3__122__compressed_pair_elemINS_9allocatorIPK17LocationStatementEELi1ELb1EEC2B7v160006ENS_18__default_init_tagE, symObjAddr: 0xC98, symBinAddr: 0x1000101A4, symSize: 0x2C }
  - { offsetInCU: 0x88E7, offset: 0x321A7, size: 0x8, addend: 0x0, symName: __ZNSt3__19allocatorIPK17LocationStatementEC2B7v160006Ev, symObjAddr: 0xCC4, symBinAddr: 0x1000101D0, symSize: 0x2C }
  - { offsetInCU: 0x8911, offset: 0x321D1, size: 0x8, addend: 0x0, symName: __ZNSt3__116__non_trivial_ifILb1ENS_9allocatorIPK17LocationStatementEEEC2B7v160006Ev, symObjAddr: 0xCF0, symBinAddr: 0x1000101FC, symSize: 0x14 }
  - { offsetInCU: 0x893B, offset: 0x321FB, size: 0x8, addend: 0x0, symName: __ZNSt3__16vectorIPK15ListenStatementNS_9allocatorIS3_EEEC2B7v160006Ev, symObjAddr: 0xD04, symBinAddr: 0x100010210, symSize: 0x4C }
  - { offsetInCU: 0x8965, offset: 0x32225, size: 0x8, addend: 0x0, symName: __ZNSt3__117__compressed_pairIPPK15ListenStatementNS_9allocatorIS3_EEEC1B7v160006IDnNS_18__default_init_tagEEEOT_OT0_, symObjAddr: 0xD50, symBinAddr: 0x10001025C, symSize: 0x3C }
  - { offsetInCU: 0x89BD, offset: 0x3227D, size: 0x8, addend: 0x0, symName: __ZNSt3__117__compressed_pairIPPK15ListenStatementNS_9allocatorIS3_EEEC2B7v160006IDnNS_18__default_init_tagEEEOT_OT0_, symObjAddr: 0xD9C, symBinAddr: 0x1000102A8, symSize: 0x40 }
  - { offsetInCU: 0x8A15, offset: 0x322D5, size: 0x8, addend: 0x0, symName: __ZNSt3__122__compressed_pair_elemINS_9allocatorIPK15ListenStatementEELi1ELb1EEC2B7v160006ENS_18__default_init_tagE, symObjAddr: 0xDF8, symBinAddr: 0x1000102E8, symSize: 0x2C }
  - { offsetInCU: 0x8A4A, offset: 0x3230A, size: 0x8, addend: 0x0, symName: __ZNSt3__19allocatorIPK15ListenStatementEC2B7v160006Ev, symObjAddr: 0xE24, symBinAddr: 0x100010314, symSize: 0x2C }
  - { offsetInCU: 0x8A74, offset: 0x32334, size: 0x8, addend: 0x0, symName: __ZNSt3__116__non_trivial_ifILb1ENS_9allocatorIPK15ListenStatementEEEC2B7v160006Ev, symObjAddr: 0xE50, symBinAddr: 0x100010340, symSize: 0x14 }
  - { offsetInCU: 0x8A9E, offset: 0x3235E, size: 0x8, addend: 0x0, symName: __ZNSt3__13mapINS_12basic_stringIcNS_11char_traitsIcEENS_9allocatorIcEEEES6_NS_4lessIS6_EENS4_INS_4pairIKS6_S6_EEEEEC2B7v160006Ev, symObjAddr: 0xE64, symBinAddr: 0x100010354, symSize: 0x40 }
  - { offsetInCU: 0x8AC8, offset: 0x32388, size: 0x8, addend: 0x0, symName: __ZNSt3__119__map_value_compareINS_12basic_stringIcNS_11char_traitsIcEENS_9allocatorIcEEEENS_12__value_typeIS6_S6_EENS_4lessIS6_EELb1EEC1B7v160006ESA_, symObjAddr: 0xEA4, symBinAddr: 0x100010394, symSize: 0x2C }
  - { offsetInCU: 0x8B01, offset: 0x323C1, size: 0x8, addend: 0x0, symName: __ZNSt3__16__treeINS_12__value_typeINS_12basic_stringIcNS_11char_traitsIcEENS_9allocatorIcEEEES7_EENS_19__map_value_compareIS7_S8_NS_4lessIS7_EELb1EEENS5_IS8_EEEC1ERKSC_, symObjAddr: 0xED0, symBinAddr: 0x1000103C0, symSize: 0x34 }
  - { offsetInCU: 0x8B3C, offset: 0x323FC, size: 0x8, addend: 0x0, symName: __ZNSt3__119__map_value_compareINS_12basic_stringIcNS_11char_traitsIcEENS_9allocatorIcEEEENS_12__value_typeIS6_S6_EENS_4lessIS6_EELb1EEC2B7v160006ESA_, symObjAddr: 0xF04, symBinAddr: 0x1000103F4, symSize: 0x14 }
  - { offsetInCU: 0x8B75, offset: 0x32435, size: 0x8, addend: 0x0, symName: __ZNSt3__16__treeINS_12__value_typeINS_12basic_stringIcNS_11char_traitsIcEENS_9allocatorIcEEEES7_EENS_19__map_value_compareIS7_S8_NS_4lessIS7_EELb1EEENS5_IS8_EEEC2ERKSC_, symObjAddr: 0xF18, symBinAddr: 0x100010408, symSize: 0x70 }
  - { offsetInCU: 0x8BB0, offset: 0x32470, size: 0x8, addend: 0x0, symName: __ZNSt3__117__compressed_pairINS_15__tree_end_nodeIPNS_16__tree_node_baseIPvEEEENS_9allocatorINS_11__tree_nodeINS_12__value_typeINS_12basic_stringIcNS_11char_traitsIcEENS7_IcEEEESE_EES3_EEEEEC1B7v160006ILb1EvEEv, symObjAddr: 0xF88, symBinAddr: 0x100010478, symSize: 0x2C }
  - { offsetInCU: 0x8BEA, offset: 0x324AA, size: 0x8, addend: 0x0, symName: __ZNSt3__117__compressed_pairImNS_19__map_value_compareINS_12basic_stringIcNS_11char_traitsIcEENS_9allocatorIcEEEENS_12__value_typeIS7_S7_EENS_4lessIS7_EELb1EEEEC1B7v160006IiRKSC_EEOT_OT0_, symObjAddr: 0xFB4, symBinAddr: 0x1000104A4, symSize: 0x3C }
  - { offsetInCU: 0x8C42, offset: 0x32502, size: 0x8, addend: 0x0, symName: __ZNSt3__117__compressed_pairINS_15__tree_end_nodeIPNS_16__tree_node_baseIPvEEEENS_9allocatorINS_11__tree_nodeINS_12__value_typeINS_12basic_stringIcNS_11char_traitsIcEENS7_IcEEEESE_EES3_EEEEEC2B7v160006ILb1EvEEv, symObjAddr: 0x1030, symBinAddr: 0x1000104E0, symSize: 0x34 }
  - { offsetInCU: 0x8C77, offset: 0x32537, size: 0x8, addend: 0x0, symName: __ZNSt3__122__compressed_pair_elemINS_15__tree_end_nodeIPNS_16__tree_node_baseIPvEEEELi0ELb0EEC2B7v160006ENS_16__value_init_tagE, symObjAddr: 0x1064, symBinAddr: 0x100010514, symSize: 0x2C }
  - { offsetInCU: 0x8CAC, offset: 0x3256C, size: 0x8, addend: 0x0, symName: __ZNSt3__122__compressed_pair_elemINS_9allocatorINS_11__tree_nodeINS_12__value_typeINS_12basic_stringIcNS_11char_traitsIcEENS1_IcEEEES8_EEPvEEEELi1ELb1EEC2B7v160006ENS_16__value_init_tagE, symObjAddr: 0x1090, symBinAddr: 0x100010540, symSize: 0x2C }
  - { offsetInCU: 0x8CE1, offset: 0x325A1, size: 0x8, addend: 0x0, symName: __ZNSt3__115__tree_end_nodeIPNS_16__tree_node_baseIPvEEEC1B7v160006Ev, symObjAddr: 0x10BC, symBinAddr: 0x10001056C, symSize: 0x2C }
  - { offsetInCU: 0x8D0B, offset: 0x325CB, size: 0x8, addend: 0x0, symName: __ZNSt3__115__tree_end_nodeIPNS_16__tree_node_baseIPvEEEC2B7v160006Ev, symObjAddr: 0x10E8, symBinAddr: 0x100010598, symSize: 0x18 }
  - { offsetInCU: 0x8D35, offset: 0x325F5, size: 0x8, addend: 0x0, symName: __ZNSt3__19allocatorINS_11__tree_nodeINS_12__value_typeINS_12basic_stringIcNS_11char_traitsIcEENS0_IcEEEES7_EEPvEEEC2B7v160006Ev, symObjAddr: 0x1100, symBinAddr: 0x1000105B0, symSize: 0x2C }
  - { offsetInCU: 0x8D5F, offset: 0x3261F, size: 0x8, addend: 0x0, symName: __ZNSt3__116__non_trivial_ifILb1ENS_9allocatorINS_11__tree_nodeINS_12__value_typeINS_12basic_stringIcNS_11char_traitsIcEENS1_IcEEEES8_EEPvEEEEEC2B7v160006Ev, symObjAddr: 0x112C, symBinAddr: 0x1000105DC, symSize: 0x14 }
  - { offsetInCU: 0x8D89, offset: 0x32649, size: 0x8, addend: 0x0, symName: __ZNSt3__117__compressed_pairImNS_19__map_value_compareINS_12basic_stringIcNS_11char_traitsIcEENS_9allocatorIcEEEENS_12__value_typeIS7_S7_EENS_4lessIS7_EELb1EEEEC2B7v160006IiRKSC_EEOT_OT0_, symObjAddr: 0x1140, symBinAddr: 0x1000105F0, symSize: 0x44 }
  - { offsetInCU: 0x8DE1, offset: 0x326A1, size: 0x8, addend: 0x0, symName: __ZNSt3__122__compressed_pair_elemImLi0ELb0EEC2B7v160006IivEEOT_, symObjAddr: 0x1184, symBinAddr: 0x100010634, symSize: 0x24 }
  - { offsetInCU: 0x8E23, offset: 0x326E3, size: 0x8, addend: 0x0, symName: __ZNSt3__122__compressed_pair_elemINS_19__map_value_compareINS_12basic_stringIcNS_11char_traitsIcEENS_9allocatorIcEEEENS_12__value_typeIS7_S7_EENS_4lessIS7_EELb1EEELi1ELb1EEC2B7v160006IRKSC_vEEOT_, symObjAddr: 0x11A8, symBinAddr: 0x100010658, symSize: 0x18 }
  - { offsetInCU: 0x8E65, offset: 0x32725, size: 0x8, addend: 0x0, symName: __ZNSt3__16vectorIPK17LocationStatementNS_9allocatorIS3_EEED2B7v160006Ev, symObjAddr: 0x120C, symBinAddr: 0x100010670, symSize: 0x3C }
  - { offsetInCU: 0x8E8F, offset: 0x3274F, size: 0x8, addend: 0x0, symName: __ZNSt3__16vectorIPK17LocationStatementNS_9allocatorIS3_EEE16__destroy_vectorC1ERS6_, symObjAddr: 0x1248, symBinAddr: 0x1000106AC, symSize: 0x34 }
  - { offsetInCU: 0x8EC8, offset: 0x32788, size: 0x8, addend: 0x0, symName: __ZNSt3__16vectorIPK17LocationStatementNS_9allocatorIS3_EEE16__destroy_vectorclB7v160006Ev, symObjAddr: 0x127C, symBinAddr: 0x1000106E0, symSize: 0x9C }
  - { offsetInCU: 0x8EEE, offset: 0x327AE, size: 0x8, addend: 0x0, symName: __ZNSt3__16vectorIPK17LocationStatementNS_9allocatorIS3_EEE16__destroy_vectorC2ERS6_, symObjAddr: 0x1318, symBinAddr: 0x10001077C, symSize: 0x20 }
  - { offsetInCU: 0x8F27, offset: 0x327E7, size: 0x8, addend: 0x0, symName: __ZNSt3__16vectorIPK17LocationStatementNS_9allocatorIS3_EEE7__clearB7v160006Ev, symObjAddr: 0x1400, symBinAddr: 0x1000107AC, symSize: 0x28 }
  - { offsetInCU: 0x8F4D, offset: 0x3280D, size: 0x8, addend: 0x0, symName: __ZNSt3__16vectorIPK17LocationStatementNS_9allocatorIS3_EEE22__base_destruct_at_endB7v160006EPS3_, symObjAddr: 0x1548, symBinAddr: 0x1000107D4, symSize: 0xA0 }
  - { offsetInCU: 0x8F91, offset: 0x32851, size: 0x8, addend: 0x0, symName: __ZNSt3__16vectorIPK15ListenStatementNS_9allocatorIS3_EEED2B7v160006Ev, symObjAddr: 0x17AC, symBinAddr: 0x100010874, symSize: 0x3C }
  - { offsetInCU: 0x8FBB, offset: 0x3287B, size: 0x8, addend: 0x0, symName: __ZNSt3__16vectorIPK15ListenStatementNS_9allocatorIS3_EEE16__destroy_vectorC1ERS6_, symObjAddr: 0x17E8, symBinAddr: 0x1000108B0, symSize: 0x34 }
  - { offsetInCU: 0x8FF4, offset: 0x328B4, size: 0x8, addend: 0x0, symName: __ZNSt3__16vectorIPK15ListenStatementNS_9allocatorIS3_EEE16__destroy_vectorclB7v160006Ev, symObjAddr: 0x181C, symBinAddr: 0x1000108E4, symSize: 0x9C }
  - { offsetInCU: 0x901A, offset: 0x328DA, size: 0x8, addend: 0x0, symName: __ZNSt3__16vectorIPK15ListenStatementNS_9allocatorIS3_EEE16__destroy_vectorC2ERS6_, symObjAddr: 0x18B8, symBinAddr: 0x100010980, symSize: 0x20 }
  - { offsetInCU: 0x9053, offset: 0x32913, size: 0x8, addend: 0x0, symName: __ZNSt3__16vectorIPK15ListenStatementNS_9allocatorIS3_EEE7__clearB7v160006Ev, symObjAddr: 0x19A0, symBinAddr: 0x1000109B0, symSize: 0x28 }
  - { offsetInCU: 0x9079, offset: 0x32939, size: 0x8, addend: 0x0, symName: __ZNSt3__16vectorIPK15ListenStatementNS_9allocatorIS3_EEE22__base_destruct_at_endB7v160006EPS3_, symObjAddr: 0x1AE8, symBinAddr: 0x1000109D8, symSize: 0xA0 }
  - { offsetInCU: 0x90BD, offset: 0x3297D, size: 0x8, addend: 0x0, symName: __ZNSt3__13mapINS_12basic_stringIcNS_11char_traitsIcEENS_9allocatorIcEEEES6_NS_4lessIS6_EENS4_INS_4pairIKS6_S6_EEEEED2B7v160006Ev, symObjAddr: 0x1CD0, symBinAddr: 0x100010A78, symSize: 0x2C }
  - { offsetInCU: 0x90E7, offset: 0x329A7, size: 0x8, addend: 0x0, symName: __ZNSt3__16__treeINS_12__value_typeINS_12basic_stringIcNS_11char_traitsIcEENS_9allocatorIcEEEES7_EENS_19__map_value_compareIS7_S8_NS_4lessIS7_EELb1EEENS5_IS8_EEED1Ev, symObjAddr: 0x1CFC, symBinAddr: 0x100010AA4, symSize: 0x2C }
  - { offsetInCU: 0x9113, offset: 0x329D3, size: 0x8, addend: 0x0, symName: __ZNSt3__16__treeINS_12__value_typeINS_12basic_stringIcNS_11char_traitsIcEENS_9allocatorIcEEEES7_EENS_19__map_value_compareIS7_S8_NS_4lessIS7_EELb1EEENS5_IS8_EEED2Ev, symObjAddr: 0x1D28, symBinAddr: 0x100010AD0, symSize: 0x38 }
  - { offsetInCU: 0x913F, offset: 0x329FF, size: 0x8, addend: 0x0, symName: __ZNSt3__16__treeINS_12__value_typeINS_12basic_stringIcNS_11char_traitsIcEENS_9allocatorIcEEEES7_EENS_19__map_value_compareIS7_S8_NS_4lessIS7_EELb1EEENS5_IS8_EEE7destroyEPNS_11__tree_nodeIS8_PvEE, symObjAddr: 0x1D60, symBinAddr: 0x100010B08, symSize: 0xC0 }
  - { offsetInCU: 0x9198, offset: 0x32A58, size: 0x8, addend: 0x0, symName: __ZNSt3__116allocator_traitsINS_9allocatorINS_11__tree_nodeINS_12__value_typeINS_12basic_stringIcNS_11char_traitsIcEENS1_IcEEEES8_EEPvEEEEE7destroyB7v160006INS_4pairIKS8_S8_EEvvEEvRSC_PT_, symObjAddr: 0x1E70, symBinAddr: 0x100010BC8, symSize: 0x28 }
  - { offsetInCU: 0x91D2, offset: 0x32A92, size: 0x8, addend: 0x0, symName: __ZNSt3__122__tree_key_value_typesINS_12__value_typeINS_12basic_stringIcNS_11char_traitsIcEENS_9allocatorIcEEEES7_EEE9__get_ptrB7v160006ERS8_, symObjAddr: 0x1E98, symBinAddr: 0x100010BF0, symSize: 0x24 }
  - { offsetInCU: 0x91F6, offset: 0x32AB6, size: 0x8, addend: 0x0, symName: __ZNSt3__14pairIKNS_12basic_stringIcNS_11char_traitsIcEENS_9allocatorIcEEEES6_ED1Ev, symObjAddr: 0x1F28, symBinAddr: 0x100010C14, symSize: 0x2C }
  - { offsetInCU: 0x9222, offset: 0x32AE2, size: 0x8, addend: 0x0, symName: __ZNSt3__14pairIKNS_12basic_stringIcNS_11char_traitsIcEENS_9allocatorIcEEEES6_ED2Ev, symObjAddr: 0x1F54, symBinAddr: 0x100010C40, symSize: 0x68 }
  - { offsetInCU: 0x8A72, offset: 0x3B5C6, size: 0x8, addend: 0x0, symName: _main, symObjAddr: 0x0, symBinAddr: 0x100010CA8, symSize: 0x144 }
  - { offsetInCU: 0x481E, offset: 0x3FE59, size: 0x8, addend: 0x0, symName: __ZN5LexerC2ENSt3__112basic_stringIcNS0_11char_traitsIcEENS0_9allocatorIcEEEE, symObjAddr: 0x0, symBinAddr: 0x100010DEC, symSize: 0x94 }
  - { offsetInCU: 0x4859, offset: 0x3FE94, size: 0x8, addend: 0x0, symName: __ZNKSt3__112basic_stringIcNS_11char_traitsIcEENS_9allocatorIcEEEixB7v160006Em, symObjAddr: 0x94, symBinAddr: 0x100010E80, symSize: 0x30 }
  - { offsetInCU: 0x488E, offset: 0x3FEC9, size: 0x8, addend: 0x0, symName: __ZN5Lexer9read_charEv, symObjAddr: 0xC4, symBinAddr: 0x100010EB0, symSize: 0x84 }
  - { offsetInCU: 0x48B6, offset: 0x3FEF1, size: 0x8, addend: 0x0, symName: __ZN5LexerC1ENSt3__112basic_stringIcNS0_11char_traitsIcEENS0_9allocatorIcEEEE, symObjAddr: 0x154, symBinAddr: 0x100010F34, symSize: 0x34 }
  - { offsetInCU: 0x48F1, offset: 0x3FF2C, size: 0x8, addend: 0x0, symName: __ZN5LexerD2Ev, symObjAddr: 0x188, symBinAddr: 0x100010F68, symSize: 0x2C }
  - { offsetInCU: 0x491C, offset: 0x3FF57, size: 0x8, addend: 0x0, symName: __ZN5LexerD1Ev, symObjAddr: 0x1B4, symBinAddr: 0x100010F94, symSize: 0x2C }
  - { offsetInCU: 0x4947, offset: 0x3FF82, size: 0x8, addend: 0x0, symName: __ZNKSt3__112basic_stringIcNS_11char_traitsIcEENS_9allocatorIcEEE6lengthB7v160006Ev, symObjAddr: 0x1E0, symBinAddr: 0x100010FC0, symSize: 0x24 }
  - { offsetInCU: 0x496D, offset: 0x3FFA8, size: 0x8, addend: 0x0, symName: __ZNSt3__112basic_stringIcNS_11char_traitsIcEENS_9allocatorIcEEEixB7v160006Em, symObjAddr: 0x204, symBinAddr: 0x100010FE4, symSize: 0x30 }
  - { offsetInCU: 0x49A2, offset: 0x3FFDD, size: 0x8, addend: 0x0, symName: __ZN5Lexer10next_tokenEv, symObjAddr: 0x234, symBinAddr: 0x100011014, symSize: 0x53C }
  - { offsetInCU: 0x49D8, offset: 0x40013, size: 0x8, addend: 0x0, symName: __ZN5Lexer18consume_whitespaceEv, symObjAddr: 0x770, symBinAddr: 0x100011550, symSize: 0xB8 }
  - { offsetInCU: 0x4A00, offset: 0x4003B, size: 0x8, addend: 0x0, symName: __ZN5Lexer15read_identifierEv, symObjAddr: 0x864, symBinAddr: 0x100011608, symSize: 0x74 }
  - { offsetInCU: 0x4A36, offset: 0x40071, size: 0x8, addend: 0x0, symName: __ZNKSt3__112basic_stringIcNS_11char_traitsIcEENS_9allocatorIcEEE6substrB7v160006Emm, symObjAddr: 0x8D8, symBinAddr: 0x10001167C, symSize: 0x68 }
  - { offsetInCU: 0x4A7A, offset: 0x400B5, size: 0x8, addend: 0x0, symName: __ZNSt3__112basic_stringIcNS_11char_traitsIcEENS_9allocatorIcEEE13__get_pointerB7v160006Ev, symObjAddr: 0xB9C, symBinAddr: 0x1000116E4, symSize: 0x54 }
  - { offsetInCU: 0x4AA0, offset: 0x400DB, size: 0x8, addend: 0x0, symName: __ZNSt3__112basic_stringIcNS_11char_traitsIcEENS_9allocatorIcEEE18__get_long_pointerB7v160006Ev, symObjAddr: 0xBF0, symBinAddr: 0x100011738, symSize: 0x28 }
  - { offsetInCU: 0x4AC6, offset: 0x40101, size: 0x8, addend: 0x0, symName: __ZNSt3__112basic_stringIcNS_11char_traitsIcEENS_9allocatorIcEEE19__get_short_pointerB7v160006Ev, symObjAddr: 0xC18, symBinAddr: 0x100011760, symSize: 0x28 }
  - { offsetInCU: 0x4AEC, offset: 0x40127, size: 0x8, addend: 0x0, symName: __ZNSt3__114pointer_traitsIPcE10pointer_toB7v160006ERc, symObjAddr: 0xC78, symBinAddr: 0x100011788, symSize: 0x14 }
  - { offsetInCU: 0x4B0F, offset: 0x4014A, size: 0x8, addend: 0x0, symName: __ZNSt3__19allocatorIcEC1B7v160006Ev, symObjAddr: 0xDE8, symBinAddr: 0x10001179C, symSize: 0x2C }
  - { offsetInCU: 0x26, offset: 0x401AE, size: 0x8, addend: 0x0, symName: __ZN5TokenC2E10token_typeNSt3__112basic_stringIcNS1_11char_traitsIcEENS1_9allocatorIcEEEE, symObjAddr: 0x0, symBinAddr: 0x1000117C8, symSize: 0x48 }
  - { offsetInCU: 0x51, offset: 0x401D9, size: 0x8, addend: 0x0, symName: __ZN5Token11token_namesE, symObjAddr: 0xF20, symBinAddr: 0x100018000, symSize: 0x0 }
  - { offsetInCU: 0x477A, offset: 0x44902, size: 0x8, addend: 0x0, symName: __ZN5TokenC2E10token_typeNSt3__112basic_stringIcNS1_11char_traitsIcEENS1_9allocatorIcEEEE, symObjAddr: 0x0, symBinAddr: 0x1000117C8, symSize: 0x48 }
  - { offsetInCU: 0x47C3, offset: 0x4494B, size: 0x8, addend: 0x0, symName: __ZN5TokenC1E10token_typeNSt3__112basic_stringIcNS1_11char_traitsIcEENS1_9allocatorIcEEEE, symObjAddr: 0x48, symBinAddr: 0x100011810, symSize: 0x3C }
  - { offsetInCU: 0x480C, offset: 0x44994, size: 0x8, addend: 0x0, symName: __ZN5TokenC2Ev, symObjAddr: 0x84, symBinAddr: 0x10001184C, symSize: 0x2C }
  - { offsetInCU: 0x4838, offset: 0x449C0, size: 0x8, addend: 0x0, symName: __ZN5TokenC1Ev, symObjAddr: 0xDC, symBinAddr: 0x100011878, symSize: 0x2C }
  - { offsetInCU: 0x4864, offset: 0x449EC, size: 0x8, addend: 0x0, symName: __ZN5TokenD2Ev, symObjAddr: 0x108, symBinAddr: 0x1000118A4, symSize: 0x2C }
  - { offsetInCU: 0x4890, offset: 0x44A18, size: 0x8, addend: 0x0, symName: __ZN5TokenD1Ev, symObjAddr: 0x134, symBinAddr: 0x1000118D0, symSize: 0x2C }
  - { offsetInCU: 0x48BC, offset: 0x44A44, size: 0x8, addend: 0x0, symName: __ZN5Token11set_literalENSt3__112basic_stringIcNS0_11char_traitsIcEENS0_9allocatorIcEEEE, symObjAddr: 0x160, symBinAddr: 0x1000118FC, symSize: 0x2C }
  - { offsetInCU: 0x48F3, offset: 0x44A7B, size: 0x8, addend: 0x0, symName: __ZN5Token11get_literalEv, symObjAddr: 0x18C, symBinAddr: 0x100011928, symSize: 0x38 }
  - { offsetInCU: 0x491B, offset: 0x44AA3, size: 0x8, addend: 0x0, symName: __ZN5Token8get_typeEv, symObjAddr: 0x1C4, symBinAddr: 0x100011960, symSize: 0x18 }
  - { offsetInCU: 0x4943, offset: 0x44ACB, size: 0x8, addend: 0x0, symName: __ZN5Token8set_typeE10token_type, symObjAddr: 0x1DC, symBinAddr: 0x100011978, symSize: 0x20 }
  - { offsetInCU: 0x4979, offset: 0x44B01, size: 0x8, addend: 0x0, symName: __ZN5Token9is_letterEc, symObjAddr: 0x1FC, symBinAddr: 0x100011998, symSize: 0x110 }
  - { offsetInCU: 0x499E, offset: 0x44B26, size: 0x8, addend: 0x0, symName: __ZN5Token14get_identifierENSt3__112basic_stringIcNS0_11char_traitsIcEENS0_9allocatorIcEEEE, symObjAddr: 0x30C, symBinAddr: 0x100011AA8, symSize: 0x1BC }
  - { offsetInCU: 0x3C5C, offset: 0x487AD, size: 0x8, addend: 0x0, symName: __ZNSt3__1lsB7v160006IcNS_11char_traitsIcEENS_9allocatorIcEEEERNS_13basic_ostreamIT_T0_EES9_RKNS_12basic_stringIS6_S7_T1_EE, symObjAddr: 0x33C, symBinAddr: 0x100011F74, symSize: 0x4C }
  - { offsetInCU: 0x5D99, offset: 0x4A8EA, size: 0x8, addend: 0x0, symName: __ZN6LoggerC2Ev, symObjAddr: 0x0, symBinAddr: 0x100011C64, symSize: 0x14 }
  - { offsetInCU: 0x5DC5, offset: 0x4A916, size: 0x8, addend: 0x0, symName: __ZN6LoggerC1Ev, symObjAddr: 0x14, symBinAddr: 0x100011C78, symSize: 0x2C }
  - { offsetInCU: 0x5DF1, offset: 0x4A942, size: 0x8, addend: 0x0, symName: __ZN6LoggerD2Ev, symObjAddr: 0x40, symBinAddr: 0x100011CA4, symSize: 0x14 }
  - { offsetInCU: 0x5E1D, offset: 0x4A96E, size: 0x8, addend: 0x0, symName: __ZN6LoggerD1Ev, symObjAddr: 0x54, symBinAddr: 0x100011CB8, symSize: 0x2C }
  - { offsetInCU: 0x5E49, offset: 0x4A99A, size: 0x8, addend: 0x0, symName: __ZN6Logger3logE9LOG_LEVELNSt3__112basic_stringIcNS1_11char_traitsIcEENS1_9allocatorIcEEEE, symObjAddr: 0x80, symBinAddr: 0x100011CE4, symSize: 0x244 }
  - { offsetInCU: 0x5EA7, offset: 0x4A9F8, size: 0x8, addend: 0x0, symName: __ZNSt3__112basic_stringIcNS_11char_traitsIcEENS_9allocatorIcEEE6appendB7v160006ERKS5_, symObjAddr: 0x2F0, symBinAddr: 0x100011F28, symSize: 0x4C }
...
